ARM GAS  C:\Users\jupac\AppData\Local\Temp\ccOKFWor.s 			page 1


   1              		.syntax unified
   2              		.cpu cortex-m0
   3              		.fpu softvfp
   4              		.eabi_attribute 20, 1
   5              		.eabi_attribute 21, 1
   6              		.eabi_attribute 23, 3
   7              		.eabi_attribute 24, 1
   8              		.eabi_attribute 25, 1
   9              		.eabi_attribute 26, 1
  10              		.eabi_attribute 30, 1
  11              		.eabi_attribute 34, 0
  12              		.eabi_attribute 18, 4
  13              		.thumb
  14              		.syntax unified
  15              		.file	"BLE.c"
  16              		.text
  17              	.Ltext0:
  18              		.cfi_sections	.debug_frame
  19              		.section	.text.CyBle_ChangeAdLocalName,"ax",%progbits
  20              		.align	2
  21              		.code	16
  22              		.thumb_func
  23              		.type	CyBle_ChangeAdLocalName, %function
  24              	CyBle_ChangeAdLocalName:
  25              	.LFB15:
  26              		.file 1 "Generated_Source\\PSoC4\\BLE.c"
   1:Generated_Source\PSoC4/BLE.c **** /***************************************************************************//**
   2:Generated_Source\PSoC4/BLE.c **** * \file CYBLE.c
   3:Generated_Source\PSoC4/BLE.c **** * \version 3.66
   4:Generated_Source\PSoC4/BLE.c **** * 
   5:Generated_Source\PSoC4/BLE.c **** * \brief
   6:Generated_Source\PSoC4/BLE.c **** *  This file contains the source code for the Common APIs of the BLE Component.
   7:Generated_Source\PSoC4/BLE.c **** * 
   8:Generated_Source\PSoC4/BLE.c **** ********************************************************************************
   9:Generated_Source\PSoC4/BLE.c **** * \copyright
  10:Generated_Source\PSoC4/BLE.c **** * Copyright 2014-2020, Cypress Semiconductor Corporation.  All rights reserved.
  11:Generated_Source\PSoC4/BLE.c **** * You may use this file only in accordance with the license, terms, conditions,
  12:Generated_Source\PSoC4/BLE.c **** * disclaimers, and limitations in the end user license agreement accompanying
  13:Generated_Source\PSoC4/BLE.c **** * the software package with which this file was provided.
  14:Generated_Source\PSoC4/BLE.c **** *******************************************************************************/
  15:Generated_Source\PSoC4/BLE.c **** 
  16:Generated_Source\PSoC4/BLE.c **** #include "BLE_eventHandler.h"
  17:Generated_Source\PSoC4/BLE.c **** #include "BLE_HAL_PVT.h"
  18:Generated_Source\PSoC4/BLE.c **** #include <stdlib.h>
  19:Generated_Source\PSoC4/BLE.c **** 
  20:Generated_Source\PSoC4/BLE.c **** 
  21:Generated_Source\PSoC4/BLE.c **** /***************************************
  22:Generated_Source\PSoC4/BLE.c **** * Function Prototypes
  23:Generated_Source\PSoC4/BLE.c **** ***************************************/
  24:Generated_Source\PSoC4/BLE.c **** 
  25:Generated_Source\PSoC4/BLE.c **** #if(CYBLE_GATT_ROLE_SERVER)
  26:Generated_Source\PSoC4/BLE.c ****     #if(CYBLE_GAP_ROLE_PERIPHERAL)
  27:Generated_Source\PSoC4/BLE.c ****         static void CyBle_ChangeAdLocalName(const char8 name[], uint8 dest);
  28:Generated_Source\PSoC4/BLE.c ****     #endif /* (CYBLE_GAP_ROLE_PERIPHERAL) */
  29:Generated_Source\PSoC4/BLE.c **** #endif /* (CYBLE_GATT_ROLE_SERVER) */
  30:Generated_Source\PSoC4/BLE.c ****     
  31:Generated_Source\PSoC4/BLE.c **** 
ARM GAS  C:\Users\jupac\AppData\Local\Temp\ccOKFWor.s 			page 2


  32:Generated_Source\PSoC4/BLE.c **** /***************************************
  33:Generated_Source\PSoC4/BLE.c **** * Global Variables
  34:Generated_Source\PSoC4/BLE.c **** ***************************************/
  35:Generated_Source\PSoC4/BLE.c **** 
  36:Generated_Source\PSoC4/BLE.c **** /* Indicates whether the BLE has been initialized. The variable is initialized to
  37:Generated_Source\PSoC4/BLE.c ****    0 and set to 1 the first time CyBle_Start() is called. This allows the component
  38:Generated_Source\PSoC4/BLE.c ****    to restart without reinitialization after the first call to the CyBle_Start() 
  39:Generated_Source\PSoC4/BLE.c ****    routine. If reinitialization of the component is required, the variable should 
  40:Generated_Source\PSoC4/BLE.c ****    be set to 0 before the CyBle_Start() routine is called. Alternatively, the BLE
  41:Generated_Source\PSoC4/BLE.c ****    can be reinitialized by calling the CyBle_Init() function.
  42:Generated_Source\PSoC4/BLE.c **** */
  43:Generated_Source\PSoC4/BLE.c **** uint8  cyBle_initVar = 0u;
  44:Generated_Source\PSoC4/BLE.c **** 
  45:Generated_Source\PSoC4/BLE.c **** /* Allocate RAM memory for stack. This buffer could be reused by application when 
  46:Generated_Source\PSoC4/BLE.c ****    BLE component is stopped. For export mode buffer is allocated in heap.
  47:Generated_Source\PSoC4/BLE.c **** */
  48:Generated_Source\PSoC4/BLE.c **** #if(CYBLE_SHARING_MODE_EXPORT)
  49:Generated_Source\PSoC4/BLE.c ****     
  50:Generated_Source\PSoC4/BLE.c **** uint8 *cyBle_stackMemoryRam = NULL;
  51:Generated_Source\PSoC4/BLE.c **** 
  52:Generated_Source\PSoC4/BLE.c **** #else
  53:Generated_Source\PSoC4/BLE.c **** 
  54:Generated_Source\PSoC4/BLE.c **** CYBLE_CYALIGNED_BEGIN CY_NOINIT uint8 cyBle_stackMemoryRam[CYBLE_STACK_RAM_SIZE] CYBLE_CYALIGNED_EN
  55:Generated_Source\PSoC4/BLE.c **** 
  56:Generated_Source\PSoC4/BLE.c **** #endif  /* CYBLE_SHARING_MODE_EXPORT */
  57:Generated_Source\PSoC4/BLE.c **** 
  58:Generated_Source\PSoC4/BLE.c **** #if(CYBLE_GAP_ROLE_PERIPHERAL || CYBLE_GAP_ROLE_BROADCASTER)
  59:Generated_Source\PSoC4/BLE.c **** 
  60:Generated_Source\PSoC4/BLE.c **** CYBLE_GAPP_DISC_PARAM_T cyBle_discoveryParam =
  61:Generated_Source\PSoC4/BLE.c **** {
  62:Generated_Source\PSoC4/BLE.c ****     0x00A0u,    /* uint16 advertising_interval_min */
  63:Generated_Source\PSoC4/BLE.c ****     0x00A0u,    /* uint16 advertising_interval_max */
  64:Generated_Source\PSoC4/BLE.c ****     CYBLE_GAPP_NON_CONNECTABLE_UNDIRECTED_ADV, /* uint8 advertising_type */
  65:Generated_Source\PSoC4/BLE.c ****     0x00u,      /* uint8 own_addr_type */
  66:Generated_Source\PSoC4/BLE.c ****     0x00u,      /* uint8 direct_addr_type */
  67:Generated_Source\PSoC4/BLE.c ****     {0x00u, 0x00u, 0x00u, 0x50u, 0xA0u, 0x00u}, /* uint8* direct_addr */
  68:Generated_Source\PSoC4/BLE.c ****     0x07u,      /* uint8 advertising_channel_map */
  69:Generated_Source\PSoC4/BLE.c ****     0x00u,      /* uint8 advertising_filter_policy */
  70:Generated_Source\PSoC4/BLE.c **** };
  71:Generated_Source\PSoC4/BLE.c **** 
  72:Generated_Source\PSoC4/BLE.c **** CYBLE_GAPP_DISC_DATA_T cyBle_discoveryData =
  73:Generated_Source\PSoC4/BLE.c **** {
  74:Generated_Source\PSoC4/BLE.c ****     { 0x02u, 0x01u, 0x04u, 0x1Au, 0xFFu, 0x4Cu, 0x00u,
  75:Generated_Source\PSoC4/BLE.c ****     0x02u, 0x15u, 0x20u, 0x02u, 0x03u, 0x04u, 0x05u, 0x06u,
  76:Generated_Source\PSoC4/BLE.c ****     0x07u, 0x08u, 0x09u, 0x20u, 0x0Bu, 0x0Cu, 0x0Du, 0x0Eu,
  77:Generated_Source\PSoC4/BLE.c ****     0x0Fu, 0x20u, 0x11u, 0x12u, 0x13u, 0x14u, 0x15u, 0x00u }, /* uint8 advertising_data[CYBLE_MAX_A
  78:Generated_Source\PSoC4/BLE.c ****     0x1Eu,      /* uint8 adv_data_length */
  79:Generated_Source\PSoC4/BLE.c **** };
  80:Generated_Source\PSoC4/BLE.c **** 
  81:Generated_Source\PSoC4/BLE.c **** CYBLE_GAPP_SCAN_RSP_DATA_T cyBle_scanRspData =
  82:Generated_Source\PSoC4/BLE.c **** {
  83:Generated_Source\PSoC4/BLE.c ****     { 0x00u, 0x00u, 0x00u, 0x00u, 0x00u, 0x00u, 0x00u,
  84:Generated_Source\PSoC4/BLE.c ****     0x00u, 0x00u, 0x00u, 0x00u, 0x00u, 0x00u, 0x00u, 0x00u,
  85:Generated_Source\PSoC4/BLE.c ****     0x00u, 0x00u, 0x00u, 0x00u, 0x00u, 0x00u, 0x00u, 0x00u,
  86:Generated_Source\PSoC4/BLE.c ****     0x00u, 0x00u, 0x00u, 0x00u, 0x00u, 0x00u, 0x00u, 0x00u }, /* uint8 scan_rsp_data[CYBLE_MAX_SCAN
  87:Generated_Source\PSoC4/BLE.c ****     0x00u,      /* uint8 scan_rsp_data_length */
  88:Generated_Source\PSoC4/BLE.c **** };
ARM GAS  C:\Users\jupac\AppData\Local\Temp\ccOKFWor.s 			page 3


  89:Generated_Source\PSoC4/BLE.c **** 
  90:Generated_Source\PSoC4/BLE.c **** /* This variable of type CYBLE_GAPP_DISC_MODE_INFO_T is present only when 
  91:Generated_Source\PSoC4/BLE.c ****    the BLE component is configured for Peripheral GAP role or Central and 
  92:Generated_Source\PSoC4/BLE.c ****    Peripheral GAP role. It contains the Advertisement settings and also the 
  93:Generated_Source\PSoC4/BLE.c ****    Advertisement and Scan response data parameters entered in the customizer.
  94:Generated_Source\PSoC4/BLE.c ****    This variable can be used by advanced users to change Advertisement settings,
  95:Generated_Source\PSoC4/BLE.c ****    Advertisement or Scan response data in runtime. 
  96:Generated_Source\PSoC4/BLE.c **** */
  97:Generated_Source\PSoC4/BLE.c **** CYBLE_GAPP_DISC_MODE_INFO_T cyBle_discoveryModeInfo =
  98:Generated_Source\PSoC4/BLE.c **** {
  99:Generated_Source\PSoC4/BLE.c ****     0x00u,      /* uint8 discMode */
 100:Generated_Source\PSoC4/BLE.c ****     &cyBle_discoveryParam,
 101:Generated_Source\PSoC4/BLE.c ****     &cyBle_discoveryData,
 102:Generated_Source\PSoC4/BLE.c ****     &cyBle_scanRspData,
 103:Generated_Source\PSoC4/BLE.c ****     0x0000u,    /* uint16 advTo */
 104:Generated_Source\PSoC4/BLE.c **** };
 105:Generated_Source\PSoC4/BLE.c **** 
 106:Generated_Source\PSoC4/BLE.c **** 
 107:Generated_Source\PSoC4/BLE.c **** #endif /* CYBLE_GAP_ROLE_PERIPHERAL || CYBLE_GAP_ROLE_BROADCASTER */
 108:Generated_Source\PSoC4/BLE.c **** 
 109:Generated_Source\PSoC4/BLE.c **** #if(CYBLE_GAP_ROLE_CENTRAL)
 110:Generated_Source\PSoC4/BLE.c ****     
 111:Generated_Source\PSoC4/BLE.c **** CYBLE_GAPC_CONN_PARAM_T cyBle_connectionParameters;
 112:Generated_Source\PSoC4/BLE.c **** 
 113:Generated_Source\PSoC4/BLE.c **** /* Connecting timeout is set to 30 seconds in CyBle_Init function. 
 114:Generated_Source\PSoC4/BLE.c ****    Not zero value starts timer in CyBle_GapcConnectDevice() API fucntion.
 115:Generated_Source\PSoC4/BLE.c **** */
 116:Generated_Source\PSoC4/BLE.c **** uint16 cyBle_connectingTimeout;
 117:Generated_Source\PSoC4/BLE.c ****     
 118:Generated_Source\PSoC4/BLE.c **** #endif /* CYBLE_GAP_ROLE_CENTRAL */
 119:Generated_Source\PSoC4/BLE.c **** 
 120:Generated_Source\PSoC4/BLE.c **** #if(CYBLE_GAP_ROLE_CENTRAL || CYBLE_GAP_ROLE_OBSERVER)
 121:Generated_Source\PSoC4/BLE.c ****     
 122:Generated_Source\PSoC4/BLE.c **** /* This variable of type CYBLE_GAPC_DISC_INFO_T is present only when  
 123:Generated_Source\PSoC4/BLE.c ****    the BLE component is configured for Central GAP role or Central and  
 124:Generated_Source\PSoC4/BLE.c ****    Peripheral GAP role. It contains the Scan settings entered in the  
 125:Generated_Source\PSoC4/BLE.c ****    customizer. This variable can be used by advanced users to change Scan  
 126:Generated_Source\PSoC4/BLE.c ****    settings in runtime.
 127:Generated_Source\PSoC4/BLE.c **** */
 128:Generated_Source\PSoC4/BLE.c **** CYBLE_GAPC_DISC_INFO_T cyBle_discoveryInfo =
 129:Generated_Source\PSoC4/BLE.c **** {
 130:Generated_Source\PSoC4/BLE.c ****     0x02u,      /* discProcedure */
 131:Generated_Source\PSoC4/BLE.c ****     0x00u,      /* scanType */
 132:Generated_Source\PSoC4/BLE.c ****     0x0320u,    /* scanInterval */
 133:Generated_Source\PSoC4/BLE.c ****     0x0320u,    /* scanWindow */
 134:Generated_Source\PSoC4/BLE.c ****     0x00u,      /* ownAddrType */
 135:Generated_Source\PSoC4/BLE.c ****     0x00u,      /* scanFilterPolicy */
 136:Generated_Source\PSoC4/BLE.c ****     0x0000u,    /* scanTO */
 137:Generated_Source\PSoC4/BLE.c ****     0x00u,      /* filterDuplicates */
 138:Generated_Source\PSoC4/BLE.c **** };
 139:Generated_Source\PSoC4/BLE.c ****     
 140:Generated_Source\PSoC4/BLE.c **** #endif /* CYBLE_GAP_ROLE_CENTRAL || CYBLE_GAP_ROLE_OBSERVER */
 141:Generated_Source\PSoC4/BLE.c **** 
 142:Generated_Source\PSoC4/BLE.c **** #if((CYBLE_GAP_ROLE_PERIPHERAL || CYBLE_GAP_ROLE_CENTRAL) && (CYBLE_BONDING_REQUIREMENT == CYBLE_BO
 143:Generated_Source\PSoC4/BLE.c **** 
 144:Generated_Source\PSoC4/BLE.c **** uint8 cyBle_peerBonding;
 145:Generated_Source\PSoC4/BLE.c **** uint8 cyBle_pendingFlashWrite;
ARM GAS  C:\Users\jupac\AppData\Local\Temp\ccOKFWor.s 			page 4


 146:Generated_Source\PSoC4/BLE.c ****     
 147:Generated_Source\PSoC4/BLE.c **** #if(CYBLE_GATT_DB_CCCD_COUNT != 0u)
 148:Generated_Source\PSoC4/BLE.c ****     static uint8 cyBle_pendingFlashClearCccdHandle;
 149:Generated_Source\PSoC4/BLE.c **** #endif /* CYBLE_GATT_DB_CCCD_COUNT != 0u */
 150:Generated_Source\PSoC4/BLE.c ****     
 151:Generated_Source\PSoC4/BLE.c **** #endif  /* (CYBLE_BONDING_REQUIREMENT == CYBLE_BONDING_YES) */
 152:Generated_Source\PSoC4/BLE.c **** 
 153:Generated_Source\PSoC4/BLE.c **** CYBLE_CALLBACK_T CyBle_ApplCallback;
 154:Generated_Source\PSoC4/BLE.c **** CYBLE_GAP_BD_ADDR_T cyBle_deviceAddress = {{0x00u, 0x00u, 0x00u, 0x50u, 0xA0u, 0x00u}, 0x00u };
 155:Generated_Source\PSoC4/BLE.c **** CYBLE_GAP_BD_ADDR_T * cyBle_sflashDeviceAddress = CYBLE_SFLASH_DEVICE_ADDRESS_PTR;
 156:Generated_Source\PSoC4/BLE.c **** 
 157:Generated_Source\PSoC4/BLE.c **** 
 158:Generated_Source\PSoC4/BLE.c **** /******************************************************************************
 159:Generated_Source\PSoC4/BLE.c **** * Function Name: CyBle_Init
 160:Generated_Source\PSoC4/BLE.c **** ***************************************************************************//**
 161:Generated_Source\PSoC4/BLE.c **** *
 162:Generated_Source\PSoC4/BLE.c **** *   Initializes the component with the parameters set in the customizer.
 163:Generated_Source\PSoC4/BLE.c **** * 
 164:Generated_Source\PSoC4/BLE.c **** *  \return
 165:Generated_Source\PSoC4/BLE.c **** *   None
 166:Generated_Source\PSoC4/BLE.c **** * 
 167:Generated_Source\PSoC4/BLE.c **** ******************************************************************************/
 168:Generated_Source\PSoC4/BLE.c **** void CyBle_Init(void)
 169:Generated_Source\PSoC4/BLE.c **** {
 170:Generated_Source\PSoC4/BLE.c ****     cyBle_eventHandlerFlag = 0u;
 171:Generated_Source\PSoC4/BLE.c ****     cyBle_busyStatus = CYBLE_STACK_STATE_FREE;
 172:Generated_Source\PSoC4/BLE.c **** 
 173:Generated_Source\PSoC4/BLE.c ****     #if(CYBLE_GAP_ROLE_PERIPHERAL || CYBLE_GAP_ROLE_BROADCASTER) 
 174:Generated_Source\PSoC4/BLE.c ****         cyBle_advertisingIntervalType = CYBLE_ADVERTISING_FAST; 
 175:Generated_Source\PSoC4/BLE.c ****     #endif /* (CYBLE_GAP_ROLE_PERIPHERAL || CYBLE_GAP_ROLE_BROADCASTER)  */
 176:Generated_Source\PSoC4/BLE.c ****     #if(CYBLE_GAP_ROLE_CENTRAL || CYBLE_GAP_ROLE_OBSERVER)
 177:Generated_Source\PSoC4/BLE.c ****         cyBle_scanningIntervalType = CYBLE_SCANNING_FAST; 
 178:Generated_Source\PSoC4/BLE.c ****     #endif /* (CYBLE_GAP_ROLE_CENTRAL || CYBLE_GAP_ROLE_OBSERVER) */
 179:Generated_Source\PSoC4/BLE.c ****         
 180:Generated_Source\PSoC4/BLE.c ****     /* Init default connection parameters. 
 181:Generated_Source\PSoC4/BLE.c ****        Application may change it before initiating a connection */
 182:Generated_Source\PSoC4/BLE.c ****     #if(CYBLE_GAP_ROLE_CENTRAL)
 183:Generated_Source\PSoC4/BLE.c ****         cyBle_connectionParameters.scanIntv = cyBle_discoveryInfo.scanIntv;
 184:Generated_Source\PSoC4/BLE.c ****         cyBle_connectionParameters.scanWindow = cyBle_discoveryInfo.scanWindow;
 185:Generated_Source\PSoC4/BLE.c ****         cyBle_connectionParameters.ownAddrType = cyBle_discoveryInfo.ownAddrType;
 186:Generated_Source\PSoC4/BLE.c ****         cyBle_connectionParameters.initiatorFilterPolicy = cyBle_discoveryInfo.scanFilterPolicy;
 187:Generated_Source\PSoC4/BLE.c ****         cyBle_connectionParameters.connIntvMin = CYBLE_GAPC_CONNECTION_INTERVAL_MIN;
 188:Generated_Source\PSoC4/BLE.c ****         cyBle_connectionParameters.connIntvMax = CYBLE_GAPC_CONNECTION_INTERVAL_MAX;
 189:Generated_Source\PSoC4/BLE.c ****         cyBle_connectionParameters.connLatency = CYBLE_GAPC_CONNECTION_SLAVE_LATENCY;
 190:Generated_Source\PSoC4/BLE.c ****         cyBle_connectionParameters.supervisionTO = CYBLE_GAPC_CONNECTION_TIME_OUT;
 191:Generated_Source\PSoC4/BLE.c ****         cyBle_connectionParameters.minCeLength = 0x0000u;
 192:Generated_Source\PSoC4/BLE.c ****         cyBle_connectionParameters.maxCeLength = 0xFFFFu;
 193:Generated_Source\PSoC4/BLE.c ****         
 194:Generated_Source\PSoC4/BLE.c ****         cyBle_connectingTimeout = CYBLE_GAPC_CONNECTING_TIMEOUT;
 195:Generated_Source\PSoC4/BLE.c ****     #endif /* CYBLE_GAP_ROLE_CENTRAL */
 196:Generated_Source\PSoC4/BLE.c **** 
 197:Generated_Source\PSoC4/BLE.c ****     CyBle_ServiceInit();
 198:Generated_Source\PSoC4/BLE.c **** 
 199:Generated_Source\PSoC4/BLE.c ****     #if((CYBLE_GAP_ROLE_PERIPHERAL || CYBLE_GAP_ROLE_CENTRAL) && (CYBLE_BONDING_REQUIREMENT == CYBL
 200:Generated_Source\PSoC4/BLE.c ****         cyBle_pendingFlashWrite = 0u;
 201:Generated_Source\PSoC4/BLE.c ****         cyBle_peerBonding = CYBLE_GAP_BONDING_NONE;
 202:Generated_Source\PSoC4/BLE.c ****     #endif  /* (CYBLE_BONDING_REQUIREMENT == CYBLE_BONDING_YES) */
ARM GAS  C:\Users\jupac\AppData\Local\Temp\ccOKFWor.s 			page 5


 203:Generated_Source\PSoC4/BLE.c **** 
 204:Generated_Source\PSoC4/BLE.c **** }
 205:Generated_Source\PSoC4/BLE.c **** 
 206:Generated_Source\PSoC4/BLE.c **** 
 207:Generated_Source\PSoC4/BLE.c **** /******************************************************************************
 208:Generated_Source\PSoC4/BLE.c **** * Function Name: CyBle_ServiceInit
 209:Generated_Source\PSoC4/BLE.c **** ***************************************************************************//**
 210:Generated_Source\PSoC4/BLE.c **** * 
 211:Generated_Source\PSoC4/BLE.c **** *  Initializes all included services.
 212:Generated_Source\PSoC4/BLE.c **** * 
 213:Generated_Source\PSoC4/BLE.c **** * \return
 214:Generated_Source\PSoC4/BLE.c **** *  None
 215:Generated_Source\PSoC4/BLE.c **** * 
 216:Generated_Source\PSoC4/BLE.c **** ******************************************************************************/
 217:Generated_Source\PSoC4/BLE.c **** void CyBle_ServiceInit(void)
 218:Generated_Source\PSoC4/BLE.c **** {
 219:Generated_Source\PSoC4/BLE.c ****     #if(CYBLE_GATT_ROLE_CLIENT)
 220:Generated_Source\PSoC4/BLE.c ****         /* Check service range before clearing to support partial discovery */
 221:Generated_Source\PSoC4/BLE.c ****         if(cyBle_serverInfo[CYBLE_SRVI_GAP].range.startHandle == CYBLE_GATT_INVALID_ATTR_HANDLE_VAL
 222:Generated_Source\PSoC4/BLE.c ****         {
 223:Generated_Source\PSoC4/BLE.c ****             (void)memset(&cyBle_gapc, 0, sizeof(cyBle_gapc));
 224:Generated_Source\PSoC4/BLE.c ****         }
 225:Generated_Source\PSoC4/BLE.c ****         if(cyBle_serverInfo[CYBLE_SRVI_GATT].range.startHandle == CYBLE_GATT_INVALID_ATTR_HANDLE_VA
 226:Generated_Source\PSoC4/BLE.c ****         {
 227:Generated_Source\PSoC4/BLE.c ****             (void)memset(&cyBle_gattc, 0, sizeof(cyBle_gattc));
 228:Generated_Source\PSoC4/BLE.c ****         }
 229:Generated_Source\PSoC4/BLE.c ****     #endif /* CYBLE_GATT_ROLE_CLIENT */
 230:Generated_Source\PSoC4/BLE.c **** 
 231:Generated_Source\PSoC4/BLE.c ****    	#ifdef CYBLE_AIOS
 232:Generated_Source\PSoC4/BLE.c ****         CyBle_AiosInit();
 233:Generated_Source\PSoC4/BLE.c ****     #endif /* CYBLE_AIOS */
 234:Generated_Source\PSoC4/BLE.c **** 
 235:Generated_Source\PSoC4/BLE.c **** 	#ifdef CYBLE_ANCS
 236:Generated_Source\PSoC4/BLE.c ****         CyBle_AncsInit();
 237:Generated_Source\PSoC4/BLE.c ****     #endif /* CYBLE_ANCS */
 238:Generated_Source\PSoC4/BLE.c **** 	
 239:Generated_Source\PSoC4/BLE.c ****     #ifdef CYBLE_ANS
 240:Generated_Source\PSoC4/BLE.c ****         CyBle_AnsInit();
 241:Generated_Source\PSoC4/BLE.c ****     #endif /* CYBLE_ANS */
 242:Generated_Source\PSoC4/BLE.c ****     
 243:Generated_Source\PSoC4/BLE.c ****     #ifdef CYBLE_BAS
 244:Generated_Source\PSoC4/BLE.c ****         CyBle_BasInit();
 245:Generated_Source\PSoC4/BLE.c ****     #endif /* CYBLE_BAS */
 246:Generated_Source\PSoC4/BLE.c ****     
 247:Generated_Source\PSoC4/BLE.c ****     #ifdef CYBLE_BCS
 248:Generated_Source\PSoC4/BLE.c ****         CyBle_BcsInit();
 249:Generated_Source\PSoC4/BLE.c ****     #endif /* CYBLE_BCS */
 250:Generated_Source\PSoC4/BLE.c **** 
 251:Generated_Source\PSoC4/BLE.c ****     #ifdef CYBLE_BLS
 252:Generated_Source\PSoC4/BLE.c ****         CyBle_BlsInit();
 253:Generated_Source\PSoC4/BLE.c ****     #endif /* CYBLE_BLS */
 254:Generated_Source\PSoC4/BLE.c ****     
 255:Generated_Source\PSoC4/BLE.c ****     #ifdef CYBLE_BMS
 256:Generated_Source\PSoC4/BLE.c ****         CyBle_BmsInit();
 257:Generated_Source\PSoC4/BLE.c ****     #endif /* CYBLE_BMS */
 258:Generated_Source\PSoC4/BLE.c ****     
 259:Generated_Source\PSoC4/BLE.c ****     #ifdef CYBLE_CGMS
ARM GAS  C:\Users\jupac\AppData\Local\Temp\ccOKFWor.s 			page 6


 260:Generated_Source\PSoC4/BLE.c ****         CyBle_CgmsInit();
 261:Generated_Source\PSoC4/BLE.c ****     #endif /* CYBLE_CGMS */
 262:Generated_Source\PSoC4/BLE.c **** 
 263:Generated_Source\PSoC4/BLE.c ****     #ifdef CYBLE_CPS
 264:Generated_Source\PSoC4/BLE.c ****         CyBle_CpsInit();
 265:Generated_Source\PSoC4/BLE.c ****     #endif /* CYBLE_CPS */
 266:Generated_Source\PSoC4/BLE.c **** 
 267:Generated_Source\PSoC4/BLE.c ****     #ifdef CYBLE_CSCS
 268:Generated_Source\PSoC4/BLE.c ****         CyBle_CscsInit();
 269:Generated_Source\PSoC4/BLE.c ****     #endif /* CYBLE_CSCS */
 270:Generated_Source\PSoC4/BLE.c ****     
 271:Generated_Source\PSoC4/BLE.c ****     #ifdef CYBLE_CTS
 272:Generated_Source\PSoC4/BLE.c ****         CyBle_CtsInit();
 273:Generated_Source\PSoC4/BLE.c ****     #endif /* CYBLE_CTS */
 274:Generated_Source\PSoC4/BLE.c **** 
 275:Generated_Source\PSoC4/BLE.c ****     #ifdef CYBLE_CUSTOM
 276:Generated_Source\PSoC4/BLE.c ****         CyBle_CustomInit();
 277:Generated_Source\PSoC4/BLE.c ****     #endif /* CYBLE_CUSTOM */
 278:Generated_Source\PSoC4/BLE.c **** 
 279:Generated_Source\PSoC4/BLE.c ****     #ifdef CYBLE_DIS
 280:Generated_Source\PSoC4/BLE.c ****         CyBle_DisInit();
 281:Generated_Source\PSoC4/BLE.c ****     #endif /* CYBLE_DIS */
 282:Generated_Source\PSoC4/BLE.c **** 
 283:Generated_Source\PSoC4/BLE.c ****     #ifdef CYBLE_ESS
 284:Generated_Source\PSoC4/BLE.c ****         CyBle_EssInit();
 285:Generated_Source\PSoC4/BLE.c ****     #endif /* CYBLE_ESS */
 286:Generated_Source\PSoC4/BLE.c ****     
 287:Generated_Source\PSoC4/BLE.c ****     #ifdef CYBLE_GLS
 288:Generated_Source\PSoC4/BLE.c ****         CyBle_GlsInit();
 289:Generated_Source\PSoC4/BLE.c ****     #endif /* CYBLE_GLS */
 290:Generated_Source\PSoC4/BLE.c ****     
 291:Generated_Source\PSoC4/BLE.c ****     #ifdef CYBLE_HIDS
 292:Generated_Source\PSoC4/BLE.c ****         CyBle_HidsInit();
 293:Generated_Source\PSoC4/BLE.c ****     #endif /* CYBLE_HIDS */
 294:Generated_Source\PSoC4/BLE.c **** 
 295:Generated_Source\PSoC4/BLE.c ****     #ifdef CYBLE_HPS
 296:Generated_Source\PSoC4/BLE.c ****         CyBle_HpsInit();
 297:Generated_Source\PSoC4/BLE.c ****     #endif /* CYBLE_HPS */
 298:Generated_Source\PSoC4/BLE.c **** 
 299:Generated_Source\PSoC4/BLE.c ****     #ifdef CYBLE_HRS
 300:Generated_Source\PSoC4/BLE.c ****         CyBle_HrsInit();
 301:Generated_Source\PSoC4/BLE.c ****     #endif /* CYBLE_HRS */
 302:Generated_Source\PSoC4/BLE.c ****     
 303:Generated_Source\PSoC4/BLE.c ****     #ifdef CYBLE_HTS
 304:Generated_Source\PSoC4/BLE.c ****         CyBle_HtsInit();
 305:Generated_Source\PSoC4/BLE.c ****     #endif /* CYBLE_RSCS */
 306:Generated_Source\PSoC4/BLE.c **** 
 307:Generated_Source\PSoC4/BLE.c ****     #ifdef CYBLE_IAS
 308:Generated_Source\PSoC4/BLE.c ****         CyBle_IasInit();
 309:Generated_Source\PSoC4/BLE.c ****     #endif /* CYBLE_IAS */
 310:Generated_Source\PSoC4/BLE.c **** 
 311:Generated_Source\PSoC4/BLE.c ****     #ifdef CYBLE_IPS
 312:Generated_Source\PSoC4/BLE.c ****         CyBle_IpsInit();
 313:Generated_Source\PSoC4/BLE.c ****     #endif /* CYBLE_IPS */
 314:Generated_Source\PSoC4/BLE.c ****     
 315:Generated_Source\PSoC4/BLE.c ****     #ifdef CYBLE_LLS
 316:Generated_Source\PSoC4/BLE.c ****         CyBle_LlsInit();
ARM GAS  C:\Users\jupac\AppData\Local\Temp\ccOKFWor.s 			page 7


 317:Generated_Source\PSoC4/BLE.c ****     #endif /* CYBLE_LLS */
 318:Generated_Source\PSoC4/BLE.c **** 
 319:Generated_Source\PSoC4/BLE.c ****     #ifdef CYBLE_LNS
 320:Generated_Source\PSoC4/BLE.c ****         CyBle_LnsInit();
 321:Generated_Source\PSoC4/BLE.c ****     #endif /* CYBLE_LNS */
 322:Generated_Source\PSoC4/BLE.c ****     
 323:Generated_Source\PSoC4/BLE.c ****     #ifdef CYBLE_NDCS
 324:Generated_Source\PSoC4/BLE.c ****         CyBle_NdcsInit();
 325:Generated_Source\PSoC4/BLE.c ****     #endif /* CYBLE_NDCS */
 326:Generated_Source\PSoC4/BLE.c ****     
 327:Generated_Source\PSoC4/BLE.c ****     #ifdef CYBLE_OTS
 328:Generated_Source\PSoC4/BLE.c ****         CyBle_OtsInit();
 329:Generated_Source\PSoC4/BLE.c ****     #endif /* CYBLE_OTS */
 330:Generated_Source\PSoC4/BLE.c ****         
 331:Generated_Source\PSoC4/BLE.c ****     #ifdef CYBLE_PASS
 332:Generated_Source\PSoC4/BLE.c ****         CyBle_PassInit();
 333:Generated_Source\PSoC4/BLE.c ****     #endif /* CYBLE_PASS */
 334:Generated_Source\PSoC4/BLE.c ****     
 335:Generated_Source\PSoC4/BLE.c ****     #ifdef CYBLE_PLXS
 336:Generated_Source\PSoC4/BLE.c ****         CyBle_PlxsInit();
 337:Generated_Source\PSoC4/BLE.c ****     #endif /* CYBLE_PLXS */
 338:Generated_Source\PSoC4/BLE.c ****     
 339:Generated_Source\PSoC4/BLE.c ****     #ifdef CYBLE_RSCS
 340:Generated_Source\PSoC4/BLE.c ****         CyBle_RscsInit();
 341:Generated_Source\PSoC4/BLE.c ****     #endif /* CYBLE_RSCS */
 342:Generated_Source\PSoC4/BLE.c **** 
 343:Generated_Source\PSoC4/BLE.c ****     #ifdef CYBLE_RTUS
 344:Generated_Source\PSoC4/BLE.c ****         CyBle_RtusInit();
 345:Generated_Source\PSoC4/BLE.c ****     #endif /* CYBLE_RTUS */
 346:Generated_Source\PSoC4/BLE.c **** 
 347:Generated_Source\PSoC4/BLE.c ****     #ifdef CYBLE_SCPS
 348:Generated_Source\PSoC4/BLE.c ****         CyBle_ScpsInit();
 349:Generated_Source\PSoC4/BLE.c ****     #endif /* CYBLE_SCPS */
 350:Generated_Source\PSoC4/BLE.c ****     
 351:Generated_Source\PSoC4/BLE.c ****     #ifdef CYBLE_TPS
 352:Generated_Source\PSoC4/BLE.c ****         CyBle_TpsInit();
 353:Generated_Source\PSoC4/BLE.c ****     #endif /* CYBLE_TPS */
 354:Generated_Source\PSoC4/BLE.c ****     
 355:Generated_Source\PSoC4/BLE.c ****     #ifdef CYBLE_UDS
 356:Generated_Source\PSoC4/BLE.c ****         CyBle_UdsInit();
 357:Generated_Source\PSoC4/BLE.c ****     #endif /* CYBLE_UDS */
 358:Generated_Source\PSoC4/BLE.c **** 
 359:Generated_Source\PSoC4/BLE.c ****     #ifdef CYBLE_WPTS
 360:Generated_Source\PSoC4/BLE.c ****         CyBle_WptsInit();
 361:Generated_Source\PSoC4/BLE.c ****     #endif /* CYBLE_WPTS */
 362:Generated_Source\PSoC4/BLE.c **** 
 363:Generated_Source\PSoC4/BLE.c ****     #ifdef CYBLE_WSS
 364:Generated_Source\PSoC4/BLE.c ****         CyBle_WssInit();
 365:Generated_Source\PSoC4/BLE.c ****     #endif /* CYBLE_WSS */
 366:Generated_Source\PSoC4/BLE.c **** }
 367:Generated_Source\PSoC4/BLE.c **** 
 368:Generated_Source\PSoC4/BLE.c **** 
 369:Generated_Source\PSoC4/BLE.c **** /******************************************************************************
 370:Generated_Source\PSoC4/BLE.c **** * Function Name: CyBle_Start
 371:Generated_Source\PSoC4/BLE.c **** ***************************************************************************//**
 372:Generated_Source\PSoC4/BLE.c **** * 
 373:Generated_Source\PSoC4/BLE.c **** *  This function initializes the BLE Stack, which consists of the BLE Stack 
ARM GAS  C:\Users\jupac\AppData\Local\Temp\ccOKFWor.s 			page 8


 374:Generated_Source\PSoC4/BLE.c **** *  Manager, BLE Controller, and BLE Host modules. It takes care of initializing
 375:Generated_Source\PSoC4/BLE.c **** *  the Profile layer, schedulers, Timer and other platform related
 376:Generated_Source\PSoC4/BLE.c **** *  resources required for the BLE component. It also registers the callback 
 377:Generated_Source\PSoC4/BLE.c **** *  function for BLE events that will be registered in the BLE stack.
 378:Generated_Source\PSoC4/BLE.c **** * 
 379:Generated_Source\PSoC4/BLE.c **** *  Note that this function does not reset the BLE Stack.
 380:Generated_Source\PSoC4/BLE.c **** * 
 381:Generated_Source\PSoC4/BLE.c **** *  For HCI-Mode of operation, this function will not initialize the BLE Host 
 382:Generated_Source\PSoC4/BLE.c **** *  module.
 383:Generated_Source\PSoC4/BLE.c **** * 
 384:Generated_Source\PSoC4/BLE.c **** *  Calling this function results in the generation of CYBLE_EVT_STACK_ON event
 385:Generated_Source\PSoC4/BLE.c **** *  on successful initialization of the BLE Stack.
 386:Generated_Source\PSoC4/BLE.c **** * 
 387:Generated_Source\PSoC4/BLE.c **** *  \param callbackFunc: Event callback function to receive events from BLE stack.
 388:Generated_Source\PSoC4/BLE.c **** *   CYBLE_CALLBACK_T is a function pointer type.
 389:Generated_Source\PSoC4/BLE.c **** * 
 390:Generated_Source\PSoC4/BLE.c **** * \return
 391:Generated_Source\PSoC4/BLE.c **** *  CYBLE_API_RESULT_T : Return value indicates if the function succeeded or 
 392:Generated_Source\PSoC4/BLE.c **** *  failed. Following are the possible error codes.
 393:Generated_Source\PSoC4/BLE.c **** * 
 394:Generated_Source\PSoC4/BLE.c **** *   <table>
 395:Generated_Source\PSoC4/BLE.c **** *  	  <tr>
 396:Generated_Source\PSoC4/BLE.c **** *       <th>Error codes</th>
 397:Generated_Source\PSoC4/BLE.c **** *       <th>Description</th>
 398:Generated_Source\PSoC4/BLE.c **** *     </tr>
 399:Generated_Source\PSoC4/BLE.c **** *     <tr>
 400:Generated_Source\PSoC4/BLE.c **** *       <td>CYBLE_ERROR_OK</td>
 401:Generated_Source\PSoC4/BLE.c **** *       <td>On successful operation.</td>
 402:Generated_Source\PSoC4/BLE.c **** *     </tr>
 403:Generated_Source\PSoC4/BLE.c **** *     <tr>
 404:Generated_Source\PSoC4/BLE.c **** *       <td>CYBLE_ERROR_INVALID_PARAMETER</td>
 405:Generated_Source\PSoC4/BLE.c **** *       <td>On passing a NULL pointer to the function. 
 406:Generated_Source\PSoC4/BLE.c **** *		</td>
 407:Generated_Source\PSoC4/BLE.c **** *     </tr>
 408:Generated_Source\PSoC4/BLE.c **** *     <tr>
 409:Generated_Source\PSoC4/BLE.c **** *       <td>CYBLE_ERROR_REPEATED_ATTEMPTS</td>
 410:Generated_Source\PSoC4/BLE.c **** *       <td>On invoking this function more than once without calling CyBle_Shutdown() 
 411:Generated_Source\PSoC4/BLE.c **** *           function between calls to this function.</td>
 412:Generated_Source\PSoC4/BLE.c **** *     </tr>
 413:Generated_Source\PSoC4/BLE.c **** *     <tr>
 414:Generated_Source\PSoC4/BLE.c **** *       <td>CYBLE_ERROR_MEMORY_ALLOCATION_FAILED</td>
 415:Generated_Source\PSoC4/BLE.c **** *       <td>There is insufficient memory available.</td>
 416:Generated_Source\PSoC4/BLE.c **** *     </tr>
 417:Generated_Source\PSoC4/BLE.c **** *   </table>
 418:Generated_Source\PSoC4/BLE.c **** * 
 419:Generated_Source\PSoC4/BLE.c **** *  \globalvars
 420:Generated_Source\PSoC4/BLE.c **** *   The CyBle_initVar variable is used to indicate initial
 421:Generated_Source\PSoC4/BLE.c **** *   configuration of this component. The variable is initialized to zero (0u)
 422:Generated_Source\PSoC4/BLE.c **** *   and set to one (1u) the first time CyBle_Start() is called. This
 423:Generated_Source\PSoC4/BLE.c **** *   allows for component initialization without re-initialization in all
 424:Generated_Source\PSoC4/BLE.c **** *   subsequent calls to the CyBle_Start() routine.
 425:Generated_Source\PSoC4/BLE.c **** * 
 426:Generated_Source\PSoC4/BLE.c **** ******************************************************************************/
 427:Generated_Source\PSoC4/BLE.c **** CYBLE_API_RESULT_T CyBle_Start(CYBLE_CALLBACK_T callbackFunc)
 428:Generated_Source\PSoC4/BLE.c **** {
 429:Generated_Source\PSoC4/BLE.c ****     CYBLE_API_RESULT_T apiResult = CYBLE_ERROR_OK;
 430:Generated_Source\PSoC4/BLE.c ****     
ARM GAS  C:\Users\jupac\AppData\Local\Temp\ccOKFWor.s 			page 9


 431:Generated_Source\PSoC4/BLE.c ****     #if(CYBLE_MODE_PROFILE)
 432:Generated_Source\PSoC4/BLE.c ****     
 433:Generated_Source\PSoC4/BLE.c ****     CYBLE_STK_APP_DATA_BUFF_T cyBle_stackDataBuff[CYBLE_STACK_APP_MIN_POOL] = 
 434:Generated_Source\PSoC4/BLE.c ****     {
 435:Generated_Source\PSoC4/BLE.c ****         {CYBLE_GATT_MTU_PLUS_L2CAP_MEM_EXT, CYBLE_GATT_MTU_BUFF_COUNT + CYBLE_GATT_MAX_ATTR_BUFF_CO
 436:Generated_Source\PSoC4/BLE.c ****         {CYBLE_L2CAP_PSM_PLUS_L2CAP_MEM_EXT, CYBLE_L2CAP_PSM_COUNT},
 437:Generated_Source\PSoC4/BLE.c ****         {CYBLE_L2CAP_CBFC_PLUS_L2CAP_MEM_EXT, 2u * CYBLE_L2CAP_LOGICAL_CHANNEL_COUNT},
 438:Generated_Source\PSoC4/BLE.c ****         {CYBLE_L2CAP_MTU_PLUS_L2CAP_MEM_EXT, CYBLE_L2CAP_LOGICAL_CHANNEL_COUNT},
 439:Generated_Source\PSoC4/BLE.c ****         {CYBLE_L2CAP_MPS_PLUS_L2CAP_MEM_EXT, CYBLE_L2CAP_LOGICAL_CHANNEL_COUNT * (CYBLE_L2CAP_MTU_M
 440:Generated_Source\PSoC4/BLE.c ****     }; 
 441:Generated_Source\PSoC4/BLE.c **** 
 442:Generated_Source\PSoC4/BLE.c ****     #endif /* CYBLE_MODE_PROFILE */
 443:Generated_Source\PSoC4/BLE.c ****     
 444:Generated_Source\PSoC4/BLE.c ****     /* If not initialized then initialize all the required hardware and software */
 445:Generated_Source\PSoC4/BLE.c ****     if(cyBle_initVar == 0u)
 446:Generated_Source\PSoC4/BLE.c ****     {
 447:Generated_Source\PSoC4/BLE.c ****         CyBle_Init();
 448:Generated_Source\PSoC4/BLE.c ****         cyBle_initVar = 1u;
 449:Generated_Source\PSoC4/BLE.c ****     }
 450:Generated_Source\PSoC4/BLE.c ****     
 451:Generated_Source\PSoC4/BLE.c ****     if(callbackFunc != NULL)
 452:Generated_Source\PSoC4/BLE.c ****     {
 453:Generated_Source\PSoC4/BLE.c ****         CyBle_ApplCallback = callbackFunc;
 454:Generated_Source\PSoC4/BLE.c ****         
 455:Generated_Source\PSoC4/BLE.c ****     #if(CYBLE_SHARING_MODE_EXPORT)
 456:Generated_Source\PSoC4/BLE.c ****         if(cyBle_stackMemoryRam == NULL)
 457:Generated_Source\PSoC4/BLE.c ****         {
 458:Generated_Source\PSoC4/BLE.c ****             cyBle_stackMemoryRam = (uint8 *)malloc(CYBLE_STACK_RAM_SIZE);
 459:Generated_Source\PSoC4/BLE.c ****             if(cyBle_stackMemoryRam == NULL)
 460:Generated_Source\PSoC4/BLE.c ****             {
 461:Generated_Source\PSoC4/BLE.c ****                 apiResult = CYBLE_ERROR_MEMORY_ALLOCATION_FAILED;
 462:Generated_Source\PSoC4/BLE.c ****             }
 463:Generated_Source\PSoC4/BLE.c ****         }
 464:Generated_Source\PSoC4/BLE.c ****     #endif /* CYBLE_SHARING_MODE_EXPORT */
 465:Generated_Source\PSoC4/BLE.c ****         if(apiResult == CYBLE_ERROR_OK)
 466:Generated_Source\PSoC4/BLE.c ****         {
 467:Generated_Source\PSoC4/BLE.c ****             CYBLE_DLE_CONFIG_PARAM_T dleConfigParams;
 468:Generated_Source\PSoC4/BLE.c ****             CYBLE_PRIVACY_1_2_CONFIG_PARAM_T privacyConfigParams;
 469:Generated_Source\PSoC4/BLE.c ****             CYBLE_STACK_CONFIG_PARAM_T stackConfig;
 470:Generated_Source\PSoC4/BLE.c ****             uint16 featureHeapReq;
 471:Generated_Source\PSoC4/BLE.c ****             
 472:Generated_Source\PSoC4/BLE.c ****             stackConfig.privacyConfig = &privacyConfigParams;
 473:Generated_Source\PSoC4/BLE.c ****             stackConfig.dleConfig = &dleConfigParams;
 474:Generated_Source\PSoC4/BLE.c ****             
 475:Generated_Source\PSoC4/BLE.c ****             /* Configure default BLE 4.1 features and enabled 4.2 features */
 476:Generated_Source\PSoC4/BLE.c ****             stackConfig.feature_mask = CYBLE_DLE_FEATURE | CYBLE_LL_PRIVACY_FEATURE | 
 477:Generated_Source\PSoC4/BLE.c ****                                        CYBLE_SECURE_CONN_FEATURE;
 478:Generated_Source\PSoC4/BLE.c **** 
 479:Generated_Source\PSoC4/BLE.c ****             /* Configure DLE */
 480:Generated_Source\PSoC4/BLE.c ****             dleConfigParams.dleMaxTxCapability = CYBLE_LL_MAX_TX_PAYLOAD_SIZE;
 481:Generated_Source\PSoC4/BLE.c ****             dleConfigParams.dleMaxRxCapability = CYBLE_LL_MAX_RX_PAYLOAD_SIZE;
 482:Generated_Source\PSoC4/BLE.c ****             dleConfigParams.dleNumTxBuffer = CYBLE_LL_DEFAULT_NUM_ACL_TX_PACKETS;
 483:Generated_Source\PSoC4/BLE.c ****         #if(CYBLE_DLE_FEATURE_ENABLED)
 484:Generated_Source\PSoC4/BLE.c ****             CyBle_EnableDleFeature();              /* Enable DLE code in stack */
 485:Generated_Source\PSoC4/BLE.c ****         #endif /* CYBLE_DLE_FEATURE_ENABLED */
 486:Generated_Source\PSoC4/BLE.c ****         
 487:Generated_Source\PSoC4/BLE.c ****             /* Configure LL Privacy */
ARM GAS  C:\Users\jupac\AppData\Local\Temp\ccOKFWor.s 			page 10


 488:Generated_Source\PSoC4/BLE.c ****             privacyConfigParams.resolvingListSize = CYBLE_MAX_RESOLVABLE_DEVICES;
 489:Generated_Source\PSoC4/BLE.c ****         #if(CYBLE_LL_PRIVACY_FEATURE_ENABLED)
 490:Generated_Source\PSoC4/BLE.c ****             CyBle_EnablePrivacyFeature();          /* Enable LL Privacy code in stack */
 491:Generated_Source\PSoC4/BLE.c ****         #endif /* CYBLE_LL_PRIVACY_FEATURE_ENABLED */
 492:Generated_Source\PSoC4/BLE.c **** 
 493:Generated_Source\PSoC4/BLE.c ****             apiResult = CyBle_StackSetFeatureConfig(&stackConfig, &featureHeapReq);
 494:Generated_Source\PSoC4/BLE.c ****             }
 495:Generated_Source\PSoC4/BLE.c ****     
 496:Generated_Source\PSoC4/BLE.c ****         if(apiResult == CYBLE_ERROR_OK)
 497:Generated_Source\PSoC4/BLE.c ****         {
 498:Generated_Source\PSoC4/BLE.c ****         
 499:Generated_Source\PSoC4/BLE.c ****         #if(CYBLE_MODE_PROFILE)
 500:Generated_Source\PSoC4/BLE.c ****             #if(CYBLE_BONDING_REQUIREMENT == CYBLE_BONDING_YES)
 501:Generated_Source\PSoC4/BLE.c ****                 apiResult = CyBle_StackInit(&CyBle_EventHandler, cyBle_stackMemoryRam, 
 502:Generated_Source\PSoC4/BLE.c ****                     CYBLE_STACK_RAM_SIZE - CYBLE_GATT_PREPARE_WRITE_BUFF_LEN, cyBle_stackDataBuff, 
 503:Generated_Source\PSoC4/BLE.c ****                     CYBLE_STACK_APP_MIN_POOL, cyBle_flashStorage.stackFlashptr, CYBLE_STACK_FLASH_S
 504:Generated_Source\PSoC4/BLE.c ****             #else
 505:Generated_Source\PSoC4/BLE.c ****                 apiResult = CyBle_StackInit(&CyBle_EventHandler, cyBle_stackMemoryRam, 
 506:Generated_Source\PSoC4/BLE.c ****                     CYBLE_STACK_RAM_SIZE - CYBLE_GATT_PREPARE_WRITE_BUFF_LEN, cyBle_stackDataBuff, 
 507:Generated_Source\PSoC4/BLE.c ****                     CYBLE_STACK_APP_MIN_POOL, NULL, 0u);
 508:Generated_Source\PSoC4/BLE.c ****             #endif  /* CYBLE_BONDING_REQUIREMENT == CYBLE_BONDING_YES */
 509:Generated_Source\PSoC4/BLE.c ****         #else /* HCI mode */
 510:Generated_Source\PSoC4/BLE.c ****             /* The following will perform preparation to use HCI over UART or over
 511:Generated_Source\PSoC4/BLE.c ****                software. But the following fucntions will not initialize the HCI
 512:Generated_Source\PSoC4/BLE.c ****                Transport. This will be done as part of Stack initialization, so
 513:Generated_Source\PSoC4/BLE.c ****                the functions should be called prior CyBle_StackInit().
 514:Generated_Source\PSoC4/BLE.c ****             */
 515:Generated_Source\PSoC4/BLE.c ****             #if (CYBLE_HCI_TYPE == CYBLE_HCI_OVER_UART)
 516:Generated_Source\PSoC4/BLE.c ****                 CyBle_HciUartTransportEnable();
 517:Generated_Source\PSoC4/BLE.c ****             #else
 518:Generated_Source\PSoC4/BLE.c ****                 CyBle_HciSoftTransportEnable();
 519:Generated_Source\PSoC4/BLE.c ****             #endif /* (CYBLE_HCI_TYPE == CYBLE_HCI_OVER_UART) */
 520:Generated_Source\PSoC4/BLE.c ****             /* This will initialize BLE stack for HCI mode operation */
 521:Generated_Source\PSoC4/BLE.c ****             apiResult = CyBle_StackInit(&CyBle_EventHandler, cyBle_stackMemoryRam, CYBLE_STACK_RAM_
 522:Generated_Source\PSoC4/BLE.c ****                 NULL, 0u, NULL, 0u);
 523:Generated_Source\PSoC4/BLE.c ****         #endif /* CYBLE_MODE_PROFILE */
 524:Generated_Source\PSoC4/BLE.c **** 
 525:Generated_Source\PSoC4/BLE.c ****             if(apiResult == CYBLE_ERROR_OK)
 526:Generated_Source\PSoC4/BLE.c ****             {
 527:Generated_Source\PSoC4/BLE.c ****                 CyBle_SetState(CYBLE_STATE_INITIALIZING);
 528:Generated_Source\PSoC4/BLE.c ****                 
 529:Generated_Source\PSoC4/BLE.c ****             #if (CYBLE_GATT_ROLE_CLIENT)
 530:Generated_Source\PSoC4/BLE.c ****                 CyBle_SetClientState(CYBLE_CLIENT_STATE_DISCONNECTED);
 531:Generated_Source\PSoC4/BLE.c ****             #endif /* CYBLE_GATT_ROLE_CLIENT */
 532:Generated_Source\PSoC4/BLE.c ****                 
 533:Generated_Source\PSoC4/BLE.c ****             #if(CYBLE_GATT_ROLE_SERVER)
 534:Generated_Source\PSoC4/BLE.c ****                 apiResult = CyBle_GattsDbRegister(cyBle_gattDB, CYBLE_GATT_DB_INDEX_COUNT, CYBLE_GA
 535:Generated_Source\PSoC4/BLE.c ****             #endif /* CYBLE_GATT_ROLE_SERVER */
 536:Generated_Source\PSoC4/BLE.c ****             }
 537:Generated_Source\PSoC4/BLE.c ****         }
 538:Generated_Source\PSoC4/BLE.c ****     }
 539:Generated_Source\PSoC4/BLE.c ****     else
 540:Generated_Source\PSoC4/BLE.c ****     {
 541:Generated_Source\PSoC4/BLE.c ****         apiResult = CYBLE_ERROR_INVALID_PARAMETER;
 542:Generated_Source\PSoC4/BLE.c ****     }
 543:Generated_Source\PSoC4/BLE.c **** 
 544:Generated_Source\PSoC4/BLE.c ****     return (apiResult);
ARM GAS  C:\Users\jupac\AppData\Local\Temp\ccOKFWor.s 			page 11


 545:Generated_Source\PSoC4/BLE.c **** }
 546:Generated_Source\PSoC4/BLE.c **** 
 547:Generated_Source\PSoC4/BLE.c **** 
 548:Generated_Source\PSoC4/BLE.c **** /******************************************************************************
 549:Generated_Source\PSoC4/BLE.c **** * Function Name: CyBle_Stop
 550:Generated_Source\PSoC4/BLE.c **** ***************************************************************************//**
 551:Generated_Source\PSoC4/BLE.c **** * 
 552:Generated_Source\PSoC4/BLE.c **** *  This function stops any ongoing operation in the BLE Stack and forces the 
 553:Generated_Source\PSoC4/BLE.c **** *  BLE Stack to shut down. The only function that can be called after calling
 554:Generated_Source\PSoC4/BLE.c **** *  this function is CyBle_Start(). 
 555:Generated_Source\PSoC4/BLE.c **** * 
 556:Generated_Source\PSoC4/BLE.c **** * \return
 557:Generated_Source\PSoC4/BLE.c **** *  None
 558:Generated_Source\PSoC4/BLE.c **** * 
 559:Generated_Source\PSoC4/BLE.c **** ******************************************************************************/
 560:Generated_Source\PSoC4/BLE.c **** void CyBle_Stop(void)
 561:Generated_Source\PSoC4/BLE.c **** {
 562:Generated_Source\PSoC4/BLE.c ****     CyBle_Shutdown();                         /* Stop all ongoing activities */
 563:Generated_Source\PSoC4/BLE.c ****     CyBle_SetState(CYBLE_STATE_STOPPED);
 564:Generated_Source\PSoC4/BLE.c ****     #if(CYBLE_SHARING_MODE_EXPORT)
 565:Generated_Source\PSoC4/BLE.c ****         if(cyBle_stackMemoryRam != NULL)
 566:Generated_Source\PSoC4/BLE.c ****         {
 567:Generated_Source\PSoC4/BLE.c ****             free(cyBle_stackMemoryRam);
 568:Generated_Source\PSoC4/BLE.c ****         }
 569:Generated_Source\PSoC4/BLE.c ****     #endif /* CYBLE_SHARING_MODE_EXPORT */
 570:Generated_Source\PSoC4/BLE.c **** }
 571:Generated_Source\PSoC4/BLE.c **** 
 572:Generated_Source\PSoC4/BLE.c **** 
 573:Generated_Source\PSoC4/BLE.c **** #if((CYBLE_GAP_ROLE_PERIPHERAL || CYBLE_GAP_ROLE_CENTRAL) && (CYBLE_BONDING_REQUIREMENT == CYBLE_BO
 574:Generated_Source\PSoC4/BLE.c **** 
 575:Generated_Source\PSoC4/BLE.c ****     
 576:Generated_Source\PSoC4/BLE.c **** /******************************************************************************
 577:Generated_Source\PSoC4/BLE.c **** * Function Name: CyBle_StoreBondingData
 578:Generated_Source\PSoC4/BLE.c **** ***************************************************************************//**
 579:Generated_Source\PSoC4/BLE.c **** * 
 580:Generated_Source\PSoC4/BLE.c **** *  This function writes the new bonding data from RAM to the dedicated Flash 
 581:Generated_Source\PSoC4/BLE.c **** *  location as defined by the component. It performs data comparing between RAM
 582:Generated_Source\PSoC4/BLE.c **** *  and Flash before writing to Flash. If there is no change between RAM and Flash
 583:Generated_Source\PSoC4/BLE.c **** *  data, then no write is performed. It writes only one flash row in one call.
 584:Generated_Source\PSoC4/BLE.c **** *  Application should keep calling this function till it return CYBLE_ERROR_OK. 
 585:Generated_Source\PSoC4/BLE.c **** *  This function is available only when Bonding requirement is selected in
 586:Generated_Source\PSoC4/BLE.c **** *  Security settings.    
 587:Generated_Source\PSoC4/BLE.c **** * 
 588:Generated_Source\PSoC4/BLE.c **** *  \param isForceWrite:  If value is set to 0, then stack will check if flash write 
 589:Generated_Source\PSoC4/BLE.c **** *                 is permissible. 
 590:Generated_Source\PSoC4/BLE.c **** *  
 591:Generated_Source\PSoC4/BLE.c **** * \return
 592:Generated_Source\PSoC4/BLE.c **** *  Return value is of type CYBLE_API_RESULT_T.
 593:Generated_Source\PSoC4/BLE.c **** *
 594:Generated_Source\PSoC4/BLE.c **** *   Errors codes                         | Description
 595:Generated_Source\PSoC4/BLE.c **** *   ----------------------------------   | ------------------------------------
 596:Generated_Source\PSoC4/BLE.c **** *   CYBLE_ERROR_OK                       | On successful operation
 597:Generated_Source\PSoC4/BLE.c **** *   CYBLE_ERROR_FLASH_WRITE_NOT_PERMITED | Flash Write is not complete
 598:Generated_Source\PSoC4/BLE.c **** *   CYBLE_ERROR_INVALID_PARAMETER        | Invalid input parameter  
 599:Generated_Source\PSoC4/BLE.c **** *   CYBLE_ERROR_FLASH_WRITE              | Error in flash Write	
 600:Generated_Source\PSoC4/BLE.c ****     
 601:Generated_Source\PSoC4/BLE.c **** *  \sideeffect
ARM GAS  C:\Users\jupac\AppData\Local\Temp\ccOKFWor.s 			page 12


 602:Generated_Source\PSoC4/BLE.c **** *   For BLE devices with 128K of Flash memory this function will automatically 
 603:Generated_Source\PSoC4/BLE.c **** *   modify the clock settings for the device.
 604:Generated_Source\PSoC4/BLE.c **** *   Writing to flash requires changes to be done to the IMO (set to 48 MHz)
 605:Generated_Source\PSoC4/BLE.c **** *   and HFCLK (source set to IMO) settings. The configuration is restored before
 606:Generated_Source\PSoC4/BLE.c **** *   returning. This will impact the operation of most of the hardware in the
 607:Generated_Source\PSoC4/BLE.c **** *   device.
 608:Generated_Source\PSoC4/BLE.c **** * 
 609:Generated_Source\PSoC4/BLE.c **** *  \globalvars
 610:Generated_Source\PSoC4/BLE.c **** *   The cyBle_pendingFlashWrite variable is used to detect status
 611:Generated_Source\PSoC4/BLE.c **** *   of pending write to flash operation for stack data and CCCD.
 612:Generated_Source\PSoC4/BLE.c **** *   This function automatically clears pending bits after write operation 
 613:Generated_Source\PSoC4/BLE.c **** *   complete.
 614:Generated_Source\PSoC4/BLE.c **** *     
 615:Generated_Source\PSoC4/BLE.c **** ******************************************************************************/
 616:Generated_Source\PSoC4/BLE.c **** CYBLE_API_RESULT_T CyBle_StoreBondingData(uint8 isForceWrite)
 617:Generated_Source\PSoC4/BLE.c **** {
 618:Generated_Source\PSoC4/BLE.c ****     CYBLE_API_RESULT_T apiResult = CYBLE_ERROR_OK;
 619:Generated_Source\PSoC4/BLE.c ****     
 620:Generated_Source\PSoC4/BLE.c ****     /* Store Stack data */
 621:Generated_Source\PSoC4/BLE.c ****     if((cyBle_pendingFlashWrite & CYBLE_PENDING_STACK_FLASH_WRITE_BIT) != 0u)
 622:Generated_Source\PSoC4/BLE.c ****     {
 623:Generated_Source\PSoC4/BLE.c ****         apiResult = CyBle_StoreStackData(isForceWrite);
 624:Generated_Source\PSoC4/BLE.c ****         if(apiResult == CYBLE_ERROR_OK)
 625:Generated_Source\PSoC4/BLE.c ****         {
 626:Generated_Source\PSoC4/BLE.c ****             cyBle_pendingFlashWrite &= (uint8)~CYBLE_PENDING_STACK_FLASH_WRITE_BIT;
 627:Generated_Source\PSoC4/BLE.c ****             /* Change apiResult if there are more pending data to store */
 628:Generated_Source\PSoC4/BLE.c ****             if((cyBle_pendingFlashWrite & CYBLE_PENDING_CCCD_FLASH_WRITE_BIT) != 0u)
 629:Generated_Source\PSoC4/BLE.c ****             {
 630:Generated_Source\PSoC4/BLE.c ****                 apiResult = CYBLE_ERROR_FLASH_WRITE_NOT_PERMITED;
 631:Generated_Source\PSoC4/BLE.c ****             }
 632:Generated_Source\PSoC4/BLE.c ****         }
 633:Generated_Source\PSoC4/BLE.c ****     }
 634:Generated_Source\PSoC4/BLE.c **** #if(CYBLE_GATT_DB_CCCD_COUNT != 0u)
 635:Generated_Source\PSoC4/BLE.c ****     /* Store CCCD values */
 636:Generated_Source\PSoC4/BLE.c ****     if( ((apiResult == CYBLE_ERROR_OK) || (isForceWrite != 0u)) && 
 637:Generated_Source\PSoC4/BLE.c ****         ((cyBle_pendingFlashWrite & CYBLE_PENDING_CCCD_FLASH_WRITE_BIT) != 0u) &&
 638:Generated_Source\PSoC4/BLE.c ****         (cyBle_connHandle.bdHandle <= CYBLE_GAP_MAX_BONDED_DEVICE))
 639:Generated_Source\PSoC4/BLE.c ****     {
 640:Generated_Source\PSoC4/BLE.c ****         apiResult = CyBle_StoreAppData(cyBle_attValuesCCCD, cyBle_flashStorage.attValuesCCCDFlashMe
 641:Generated_Source\PSoC4/BLE.c ****                         cyBle_connHandle.bdHandle], CYBLE_GATT_DB_CCCD_COUNT, isForceWrite);
 642:Generated_Source\PSoC4/BLE.c ****         if(apiResult == CYBLE_ERROR_OK)
 643:Generated_Source\PSoC4/BLE.c ****         {
 644:Generated_Source\PSoC4/BLE.c ****             cyBle_pendingFlashWrite &= (uint8)~CYBLE_PENDING_CCCD_FLASH_WRITE_BIT;
 645:Generated_Source\PSoC4/BLE.c ****         }
 646:Generated_Source\PSoC4/BLE.c ****     }
 647:Generated_Source\PSoC4/BLE.c ****     /* Clear requested CCCD values */
 648:Generated_Source\PSoC4/BLE.c ****     if( ((apiResult == CYBLE_ERROR_OK) || (isForceWrite != 0u)) && 
 649:Generated_Source\PSoC4/BLE.c ****         ((cyBle_pendingFlashWrite & CYBLE_PENDING_CCCD_FLASH_CLEAR_MASK) != 0u) )
 650:Generated_Source\PSoC4/BLE.c ****     {
 651:Generated_Source\PSoC4/BLE.c ****         if((cyBle_pendingFlashWrite & CYBLE_PENDING_CCCD_FLASH_CLEAR_ALL_BIT) != 0u)
 652:Generated_Source\PSoC4/BLE.c ****         {
 653:Generated_Source\PSoC4/BLE.c ****             /* Remove cccd values for all bonded devices */
 654:Generated_Source\PSoC4/BLE.c ****             uint8 defaultValuesCCCD[CYBLE_GAP_MAX_BONDED_DEVICE + 1u][CYBLE_GATT_DB_CCCD_COUNT];
 655:Generated_Source\PSoC4/BLE.c ****             
 656:Generated_Source\PSoC4/BLE.c ****             (void)memset(defaultValuesCCCD, 0, sizeof(defaultValuesCCCD));
 657:Generated_Source\PSoC4/BLE.c **** 
 658:Generated_Source\PSoC4/BLE.c ****             apiResult = CyBle_StoreAppData((uint8 *)defaultValuesCCCD, 
ARM GAS  C:\Users\jupac\AppData\Local\Temp\ccOKFWor.s 			page 13


 659:Generated_Source\PSoC4/BLE.c ****                 (const uint8 *)cyBle_flashStorage.attValuesCCCDFlashMemory, sizeof(defaultValuesCCC
 660:Generated_Source\PSoC4/BLE.c ****             if(apiResult == CYBLE_ERROR_OK)
 661:Generated_Source\PSoC4/BLE.c ****             {
 662:Generated_Source\PSoC4/BLE.c ****                 cyBle_pendingFlashWrite &= (uint8)~CYBLE_PENDING_CCCD_FLASH_CLEAR_ALL_BIT;
 663:Generated_Source\PSoC4/BLE.c ****             }
 664:Generated_Source\PSoC4/BLE.c ****         }
 665:Generated_Source\PSoC4/BLE.c ****         else /* Remove cccd values for particular device */
 666:Generated_Source\PSoC4/BLE.c ****         {
 667:Generated_Source\PSoC4/BLE.c ****             uint8 defaultValuesCCCD[CYBLE_GATT_DB_CCCD_COUNT] = {0u};
 668:Generated_Source\PSoC4/BLE.c ****             
 669:Generated_Source\PSoC4/BLE.c ****             apiResult = CyBle_StoreAppData(defaultValuesCCCD, cyBle_flashStorage.attValuesCCCDFlash
 670:Generated_Source\PSoC4/BLE.c ****                                     cyBle_pendingFlashClearCccdHandle], CYBLE_GATT_DB_CCCD_COUNT, i
 671:Generated_Source\PSoC4/BLE.c ****             if(apiResult == CYBLE_ERROR_OK)
 672:Generated_Source\PSoC4/BLE.c ****             {
 673:Generated_Source\PSoC4/BLE.c ****                 cyBle_pendingFlashWrite &= (uint8)~CYBLE_PENDING_CCCD_FLASH_CLEAR_BIT;
 674:Generated_Source\PSoC4/BLE.c ****             }
 675:Generated_Source\PSoC4/BLE.c ****         }
 676:Generated_Source\PSoC4/BLE.c ****     }
 677:Generated_Source\PSoC4/BLE.c **** #endif /* CYBLE_GATT_DB_CCCD_COUNT != 0u */
 678:Generated_Source\PSoC4/BLE.c ****     return(apiResult);
 679:Generated_Source\PSoC4/BLE.c **** }
 680:Generated_Source\PSoC4/BLE.c **** 
 681:Generated_Source\PSoC4/BLE.c **** 
 682:Generated_Source\PSoC4/BLE.c **** /******************************************************************************
 683:Generated_Source\PSoC4/BLE.c **** * Function Name: CyBle_GapRemoveBondedDevice
 684:Generated_Source\PSoC4/BLE.c **** ***************************************************************************//**
 685:Generated_Source\PSoC4/BLE.c **** * 
 686:Generated_Source\PSoC4/BLE.c **** *  This function marks the device untrusted. It removes the bonding information
 687:Generated_Source\PSoC4/BLE.c **** *  of the device including CCCD values. This function removes device from the
 688:Generated_Source\PSoC4/BLE.c **** *  white list also when autopopulate white list with bonded devices option is
 689:Generated_Source\PSoC4/BLE.c **** *  enabled.
 690:Generated_Source\PSoC4/BLE.c **** * 
 691:Generated_Source\PSoC4/BLE.c **** *  This function is available only when Bonding requirement is selected in
 692:Generated_Source\PSoC4/BLE.c **** *  Security settings.    
 693:Generated_Source\PSoC4/BLE.c **** *
 694:Generated_Source\PSoC4/BLE.c **** *  \param bdAddr: Pointer to peer device address, of type CYBLE_GAP_BD_ADDR_T.
 695:Generated_Source\PSoC4/BLE.c **** *                 If device address is set to 0, then all devices shall be
 696:Generated_Source\PSoC4/BLE.c **** *                 removed from trusted list and white list.
 697:Generated_Source\PSoC4/BLE.c **** *
 698:Generated_Source\PSoC4/BLE.c **** * \return
 699:Generated_Source\PSoC4/BLE.c **** *  CYBLE_API_RESULT_T : Return value indicates if the function succeeded or
 700:Generated_Source\PSoC4/BLE.c **** *  failed. Following are the possible error codes.
 701:Generated_Source\PSoC4/BLE.c **** *
 702:Generated_Source\PSoC4/BLE.c **** *   Errors codes                     | Description
 703:Generated_Source\PSoC4/BLE.c **** *   ---------------------------------| ------------------------------------
 704:Generated_Source\PSoC4/BLE.c **** *   CYBLE_ERROR_OK                   | On successful operation.
 705:Generated_Source\PSoC4/BLE.c **** *   CYBLE_ERROR_INVALID_PARAMETER    | On specifying NULL as input parameter for 'bdAddr'.
 706:Generated_Source\PSoC4/BLE.c **** *   CYBLE_ERROR_INVALID_OPERATION    | Whitelist is already in use or there is pending write to fla
 707:Generated_Source\PSoC4/BLE.c **** *   CYBLE_ERROR_NO_DEVICE_ENTITY     | Device does not exist in the bond list.
 708:Generated_Source\PSoC4/BLE.c **** *
 709:Generated_Source\PSoC4/BLE.c **** *  \globalvars
 710:Generated_Source\PSoC4/BLE.c **** *   The bdHandle is set in cyBle_pendingFlashWrite variable to indicate that
 711:Generated_Source\PSoC4/BLE.c **** *   data should be stored to flash by CyBle_StoreBondingData() afterwards. 
 712:Generated_Source\PSoC4/BLE.c **** *     
 713:Generated_Source\PSoC4/BLE.c **** ******************************************************************************/
 714:Generated_Source\PSoC4/BLE.c **** CYBLE_API_RESULT_T CyBle_GapRemoveBondedDevice(CYBLE_GAP_BD_ADDR_T* bdAddr)
 715:Generated_Source\PSoC4/BLE.c **** {
ARM GAS  C:\Users\jupac\AppData\Local\Temp\ccOKFWor.s 			page 14


 716:Generated_Source\PSoC4/BLE.c ****     CYBLE_API_RESULT_T apiResult = CYBLE_ERROR_OK;
 717:Generated_Source\PSoC4/BLE.c ****     
 718:Generated_Source\PSoC4/BLE.c ****     if(cyBle_pendingFlashWrite == 0u)
 719:Generated_Source\PSoC4/BLE.c ****     {
 720:Generated_Source\PSoC4/BLE.c ****         
 721:Generated_Source\PSoC4/BLE.c ****     #if(CYBLE_GATT_DB_CCCD_COUNT != 0u)
 722:Generated_Source\PSoC4/BLE.c ****         /* Request to clear CCCD values which will be done by CyBle_StoreBondingData() */
 723:Generated_Source\PSoC4/BLE.c ****         uint8 bDevHandle;
 724:Generated_Source\PSoC4/BLE.c ****         CYBLE_GAP_BD_ADDR_T invalidBdAddr = {{0u,0u,0u,0u,0u,0u}, 0u};
 725:Generated_Source\PSoC4/BLE.c **** 
 726:Generated_Source\PSoC4/BLE.c ****         if(memcmp(((uint8 *) &(bdAddr->bdAddr)), ((uint8 *) &(invalidBdAddr.bdAddr)), CYBLE_GAP_BD_
 727:Generated_Source\PSoC4/BLE.c **** 	    {
 728:Generated_Source\PSoC4/BLE.c ****             /* Request to remove all bonded devices by CyBle_StoreBondingData() */
 729:Generated_Source\PSoC4/BLE.c ****             cyBle_pendingFlashWrite |= CYBLE_PENDING_CCCD_FLASH_CLEAR_ALL_BIT;
 730:Generated_Source\PSoC4/BLE.c ****         }
 731:Generated_Source\PSoC4/BLE.c ****         else
 732:Generated_Source\PSoC4/BLE.c ****         {
 733:Generated_Source\PSoC4/BLE.c ****             /* Get the BD handle from Address */
 734:Generated_Source\PSoC4/BLE.c ****             apiResult = CyBle_GapGetPeerBdHandle(&bDevHandle, bdAddr);
 735:Generated_Source\PSoC4/BLE.c ****             if(apiResult == CYBLE_ERROR_OK)
 736:Generated_Source\PSoC4/BLE.c ****             {
 737:Generated_Source\PSoC4/BLE.c ****                 /* Store BD handle to clear cccd values by CyBle_StoreBondingData() */
 738:Generated_Source\PSoC4/BLE.c ****                 cyBle_pendingFlashWrite |= CYBLE_PENDING_CCCD_FLASH_CLEAR_BIT;
 739:Generated_Source\PSoC4/BLE.c ****                 cyBle_pendingFlashClearCccdHandle = bDevHandle;
 740:Generated_Source\PSoC4/BLE.c ****             }
 741:Generated_Source\PSoC4/BLE.c ****         }
 742:Generated_Source\PSoC4/BLE.c ****     #endif /* CYBLE_GATT_DB_CCCD_COUNT != 0u */
 743:Generated_Source\PSoC4/BLE.c ****         if(apiResult == CYBLE_ERROR_OK)
 744:Generated_Source\PSoC4/BLE.c ****         {
 745:Generated_Source\PSoC4/BLE.c ****             apiResult = CyBle_GapRemoveDeviceFromWhiteList(bdAddr);
 746:Generated_Source\PSoC4/BLE.c ****         }
 747:Generated_Source\PSoC4/BLE.c ****     }
 748:Generated_Source\PSoC4/BLE.c ****     else
 749:Generated_Source\PSoC4/BLE.c ****     {
 750:Generated_Source\PSoC4/BLE.c ****         apiResult = CYBLE_ERROR_INVALID_OPERATION;
 751:Generated_Source\PSoC4/BLE.c ****     }
 752:Generated_Source\PSoC4/BLE.c ****     
 753:Generated_Source\PSoC4/BLE.c ****     return(apiResult);
 754:Generated_Source\PSoC4/BLE.c **** }
 755:Generated_Source\PSoC4/BLE.c **** 
 756:Generated_Source\PSoC4/BLE.c **** 
 757:Generated_Source\PSoC4/BLE.c **** #endif /* (CYBLE_GAP_ROLE_PERIPHERAL || CYBLE_GAP_ROLE_CENTRAL) && (CYBLE_BONDING_REQUIREMENT == CY
 758:Generated_Source\PSoC4/BLE.c **** 
 759:Generated_Source\PSoC4/BLE.c **** 
 760:Generated_Source\PSoC4/BLE.c **** #if(CYBLE_GAP_ROLE_PERIPHERAL || CYBLE_GAP_ROLE_BROADCASTER)
 761:Generated_Source\PSoC4/BLE.c **** 
 762:Generated_Source\PSoC4/BLE.c ****     /******************************************************************************
 763:Generated_Source\PSoC4/BLE.c ****     *  Function Name: CyBle_GappStartAdvertisement
 764:Generated_Source\PSoC4/BLE.c ****     ***************************************************************************//**
 765:Generated_Source\PSoC4/BLE.c ****     *     
 766:Generated_Source\PSoC4/BLE.c ****     *  This function is used to start the advertisement using the advertisement data 
 767:Generated_Source\PSoC4/BLE.c ****     *  set in the component customizer's GUI. After invoking this function, the 
 768:Generated_Source\PSoC4/BLE.c ****     *  device will be available for connection by the devices configured for GAP 
 769:Generated_Source\PSoC4/BLE.c ****     *  central role. It is only included if the device is configured for GAP 
 770:Generated_Source\PSoC4/BLE.c ****     *  Peripheral or GAP Peripheral + Central role.
 771:Generated_Source\PSoC4/BLE.c ****     *  
 772:Generated_Source\PSoC4/BLE.c ****     *  On start of advertisement, GAP Peripheral receives the
ARM GAS  C:\Users\jupac\AppData\Local\Temp\ccOKFWor.s 			page 15


 773:Generated_Source\PSoC4/BLE.c ****     *  CYBLE_EVT_GAPP_ADVERTISEMENT_START_STOP event. The following events are 
 774:Generated_Source\PSoC4/BLE.c ****     *  possible on invoking this function:
 775:Generated_Source\PSoC4/BLE.c ****     *  
 776:Generated_Source\PSoC4/BLE.c ****     *  * CYBLE_EVT_GAP_DEVICE_CONNECTED - If the device connects to a GAP Central and 
 777:Generated_Source\PSoC4/BLE.c ****     *    Link Layer Privacy is disabled in component customizer.
 778:Generated_Source\PSoC4/BLE.c ****     *  * CYBLE_EVT_GAP_ENHANCE_CONN_COMPLETE - If the device connects to a GAP Central and 
 779:Generated_Source\PSoC4/BLE.c ****     *    Link Layer Privacy is enabled in component customizer.
 780:Generated_Source\PSoC4/BLE.c ****     *  * CYBLE_EVT_TIMEOUT: If no device in GAP Central mode connects to this 
 781:Generated_Source\PSoC4/BLE.c ****     *                       device within the specified timeout limit. Stack 
 782:Generated_Source\PSoC4/BLE.c ****     *                       automatically initiate stop advertising when Slow 
 783:Generated_Source\PSoC4/BLE.c ****     *                       advertising was initiated, or starts Slow advertising
 784:Generated_Source\PSoC4/BLE.c ****     *                       after Fast advertising timeout occur.
 785:Generated_Source\PSoC4/BLE.c ****     *  * CYBLE_EVT_GAPP_ADVERTISEMENT_START_STOP: If device started or stopped
 786:Generated_Source\PSoC4/BLE.c ****     *                                               advertising. Use CyBle_GetState()
 787:Generated_Source\PSoC4/BLE.c ****     *                                               to determine the state. Sequential 
 788:Generated_Source\PSoC4/BLE.c ****     *                                               advertising could be started when
 789:Generated_Source\PSoC4/BLE.c ****     *                                               CYBLE_STATE_DISCONNECTED state is
 790:Generated_Source\PSoC4/BLE.c ****     *                                               returned.
 791:Generated_Source\PSoC4/BLE.c ****     * 
 792:Generated_Source\PSoC4/BLE.c ****     *  \param advertisingIntervalType: Fast or slow advertising interval with timings
 793:Generated_Source\PSoC4/BLE.c ****     *                                 entered in Advertising settings section of the
 794:Generated_Source\PSoC4/BLE.c ****     *                                 customizer.
 795:Generated_Source\PSoC4/BLE.c ****     *  * CYBLE_ADVERTISING_FAST   0x00u
 796:Generated_Source\PSoC4/BLE.c ****     *  * CYBLE_ADVERTISING_SLOW   0x01u
 797:Generated_Source\PSoC4/BLE.c ****     *  * CYBLE_ADVERTISING_CUSTOM 0x02u
 798:Generated_Source\PSoC4/BLE.c ****     * 
 799:Generated_Source\PSoC4/BLE.c ****     * \return
 800:Generated_Source\PSoC4/BLE.c ****     *  CYBLE_API_RESULT_T : Return value indicates if the function succeeded or
 801:Generated_Source\PSoC4/BLE.c ****     *  failed. Following are the possible error codes.
 802:Generated_Source\PSoC4/BLE.c ****     * 
 803:Generated_Source\PSoC4/BLE.c ****     *   Errors codes                      |  Description
 804:Generated_Source\PSoC4/BLE.c ****     *   --------------------------------- |  --------------------------------
 805:Generated_Source\PSoC4/BLE.c ****     *   CYBLE_ERROR_OK                    |  On successful operation.
 806:Generated_Source\PSoC4/BLE.c ****     *   CYBLE_ERROR_INVALID_PARAMETER     |  On passing an invalid parameter.
 807:Generated_Source\PSoC4/BLE.c ****     *   CYBLE_ERROR_INVALID_STATE         |  On calling this function not in Disconnected state.
 808:Generated_Source\PSoC4/BLE.c ****     *
 809:Generated_Source\PSoC4/BLE.c ****     * 
 810:Generated_Source\PSoC4/BLE.c ****     *******************************************************************************/
 811:Generated_Source\PSoC4/BLE.c ****     CYBLE_API_RESULT_T CyBle_GappStartAdvertisement(uint8 advertisingIntervalType)
 812:Generated_Source\PSoC4/BLE.c ****     {
 813:Generated_Source\PSoC4/BLE.c ****         CYBLE_API_RESULT_T apiResult;
 814:Generated_Source\PSoC4/BLE.c ****         
 815:Generated_Source\PSoC4/BLE.c ****         if(advertisingIntervalType > CYBLE_ADVERTISING_CUSTOM)
 816:Generated_Source\PSoC4/BLE.c ****         {
 817:Generated_Source\PSoC4/BLE.c ****             apiResult = CYBLE_ERROR_INVALID_PARAMETER;
 818:Generated_Source\PSoC4/BLE.c ****         }
 819:Generated_Source\PSoC4/BLE.c ****         else if((CYBLE_STATE_DISCONNECTED == CyBle_GetState()) && ((cyBle_eventHandlerFlag & CYBLE_
 820:Generated_Source\PSoC4/BLE.c ****         {   
 821:Generated_Source\PSoC4/BLE.c ****             if(advertisingIntervalType == CYBLE_ADVERTISING_FAST)
 822:Generated_Source\PSoC4/BLE.c ****             {
 823:Generated_Source\PSoC4/BLE.c ****                 cyBle_discoveryModeInfo.advTo = CYBLE_FAST_ADV_TIMEOUT;
 824:Generated_Source\PSoC4/BLE.c ****                 cyBle_discoveryModeInfo.advParam->advIntvMin = CYBLE_FAST_ADV_INT_MIN;
 825:Generated_Source\PSoC4/BLE.c ****                 cyBle_discoveryModeInfo.advParam->advIntvMax = CYBLE_FAST_ADV_INT_MAX;
 826:Generated_Source\PSoC4/BLE.c ****             }
 827:Generated_Source\PSoC4/BLE.c ****             else if(advertisingIntervalType == CYBLE_ADVERTISING_SLOW)
 828:Generated_Source\PSoC4/BLE.c ****             {
 829:Generated_Source\PSoC4/BLE.c ****                 cyBle_discoveryModeInfo.advTo = CYBLE_SLOW_ADV_TIMEOUT;
ARM GAS  C:\Users\jupac\AppData\Local\Temp\ccOKFWor.s 			page 16


 830:Generated_Source\PSoC4/BLE.c ****                 cyBle_discoveryModeInfo.advParam->advIntvMin = CYBLE_SLOW_ADV_INT_MIN;
 831:Generated_Source\PSoC4/BLE.c ****                 cyBle_discoveryModeInfo.advParam->advIntvMax = CYBLE_SLOW_ADV_INT_MAX;
 832:Generated_Source\PSoC4/BLE.c ****             }       
 833:Generated_Source\PSoC4/BLE.c ****             else /* Do not update advertising intervals */
 834:Generated_Source\PSoC4/BLE.c ****             {
 835:Generated_Source\PSoC4/BLE.c ****             }
 836:Generated_Source\PSoC4/BLE.c ****             cyBle_advertisingIntervalType = advertisingIntervalType;
 837:Generated_Source\PSoC4/BLE.c ****             apiResult = CyBle_GappEnterDiscoveryMode(&cyBle_discoveryModeInfo);
 838:Generated_Source\PSoC4/BLE.c ****         
 839:Generated_Source\PSoC4/BLE.c ****             if(apiResult == CYBLE_ERROR_OK)
 840:Generated_Source\PSoC4/BLE.c ****             {
 841:Generated_Source\PSoC4/BLE.c ****                 cyBle_eventHandlerFlag |= CYBLE_START_FLAG;
 842:Generated_Source\PSoC4/BLE.c ****             }
 843:Generated_Source\PSoC4/BLE.c ****         }
 844:Generated_Source\PSoC4/BLE.c ****         else
 845:Generated_Source\PSoC4/BLE.c ****         {
 846:Generated_Source\PSoC4/BLE.c ****             apiResult = CYBLE_ERROR_INVALID_STATE;
 847:Generated_Source\PSoC4/BLE.c ****         }
 848:Generated_Source\PSoC4/BLE.c **** 
 849:Generated_Source\PSoC4/BLE.c ****         return (apiResult);
 850:Generated_Source\PSoC4/BLE.c ****     }
 851:Generated_Source\PSoC4/BLE.c **** 
 852:Generated_Source\PSoC4/BLE.c ****     
 853:Generated_Source\PSoC4/BLE.c ****     /******************************************************************************
 854:Generated_Source\PSoC4/BLE.c ****     * Function Name: CyBle_GappStopAdvertisement
 855:Generated_Source\PSoC4/BLE.c ****     ***************************************************************************//**
 856:Generated_Source\PSoC4/BLE.c ****     * 
 857:Generated_Source\PSoC4/BLE.c ****     *   This function can be used to exit from discovery mode. After the execution 
 858:Generated_Source\PSoC4/BLE.c ****     *   of this function, there will no longer be any advertisements. On stopping 
 859:Generated_Source\PSoC4/BLE.c ****     *   advertising, GAP Peripheral receives CYBLE_EVT_GAPP_ADVERTISEMENT_START_STOP
 860:Generated_Source\PSoC4/BLE.c ****     *   event. It is expected that the application layer tracks the function call 
 861:Generated_Source\PSoC4/BLE.c ****     *   performed before occurrence of this event as this event can occur on making 
 862:Generated_Source\PSoC4/BLE.c ****     *   a call to Cy_BleGappStartAdvertisement(), CyBle_GappEnterDiscoveryMode(), 
 863:Generated_Source\PSoC4/BLE.c ****     *   or CyBle_GappStartAdvertisement() functions as well.
 864:Generated_Source\PSoC4/BLE.c ****     *   
 865:Generated_Source\PSoC4/BLE.c ****     *   The following event occurs on invoking this function:
 866:Generated_Source\PSoC4/BLE.c ****     *   * CYBLE_EVT_GAPP_ADVERTISEMENT_START_STOP
 867:Generated_Source\PSoC4/BLE.c ****     * 
 868:Generated_Source\PSoC4/BLE.c ****     *  \return
 869:Generated_Source\PSoC4/BLE.c ****     *   None
 870:Generated_Source\PSoC4/BLE.c ****     * 
 871:Generated_Source\PSoC4/BLE.c ****     *******************************************************************************/
 872:Generated_Source\PSoC4/BLE.c ****     void CyBle_GappStopAdvertisement(void)
 873:Generated_Source\PSoC4/BLE.c ****     {
 874:Generated_Source\PSoC4/BLE.c ****         CyBle_GappExitDiscoveryMode();
 875:Generated_Source\PSoC4/BLE.c ****         cyBle_eventHandlerFlag |= CYBLE_STOP_FLAG;
 876:Generated_Source\PSoC4/BLE.c ****     }
 877:Generated_Source\PSoC4/BLE.c ****     
 878:Generated_Source\PSoC4/BLE.c ****     
 879:Generated_Source\PSoC4/BLE.c ****     /******************************************************************************
 880:Generated_Source\PSoC4/BLE.c ****     * Function Name: CyBle_ChangeAdDeviceAddress
 881:Generated_Source\PSoC4/BLE.c ****     ***************************************************************************//**
 882:Generated_Source\PSoC4/BLE.c ****     * 
 883:Generated_Source\PSoC4/BLE.c ****     *  This function is used to set the Bluetooth device address into the 
 884:Generated_Source\PSoC4/BLE.c ****     *  advertisement or scan response data structure.
 885:Generated_Source\PSoC4/BLE.c ****     * 
 886:Generated_Source\PSoC4/BLE.c ****     *  \param bdAddr: Bluetooth Device address. The variable is of type CYBLE_GAP_BD_ADDR_T
ARM GAS  C:\Users\jupac\AppData\Local\Temp\ccOKFWor.s 			page 17


 887:Generated_Source\PSoC4/BLE.c ****     *  \param dest: 0 - selects advertisement structure, not zero value selects scan 
 888:Generated_Source\PSoC4/BLE.c ****     *               response structure.
 889:Generated_Source\PSoC4/BLE.c ****     * 
 890:Generated_Source\PSoC4/BLE.c ****     * \return
 891:Generated_Source\PSoC4/BLE.c ****     *  None
 892:Generated_Source\PSoC4/BLE.c ****     *  
 893:Generated_Source\PSoC4/BLE.c ****     *******************************************************************************/
 894:Generated_Source\PSoC4/BLE.c ****     void CyBle_ChangeAdDeviceAddress(const CYBLE_GAP_BD_ADDR_T* bdAddr, uint8 dest)
 895:Generated_Source\PSoC4/BLE.c ****     {
 896:Generated_Source\PSoC4/BLE.c ****         uint8 i;
 897:Generated_Source\PSoC4/BLE.c ****         uint8 *destBuffer = NULL;
 898:Generated_Source\PSoC4/BLE.c ****         
 899:Generated_Source\PSoC4/BLE.c ****         if(dest == 0u)      /* Destination - advertising structure */
 900:Generated_Source\PSoC4/BLE.c ****         {
 901:Generated_Source\PSoC4/BLE.c ****             #ifdef CYBLE_ADV_PKT_INDEX_BLUETOOTH_DEVICE_ADDRESS
 902:Generated_Source\PSoC4/BLE.c ****                 destBuffer = &cyBle_discoveryData.advData[CYBLE_ADV_PKT_INDEX_BLUETOOTH_DEVICE_ADDR
 903:Generated_Source\PSoC4/BLE.c ****             #endif /* CYBLE_ADV_PKT_INDEX_BLUETOOTH_DEVICE_ADDRESS */
 904:Generated_Source\PSoC4/BLE.c ****         }
 905:Generated_Source\PSoC4/BLE.c ****         else                /* Destination - scan response structure */
 906:Generated_Source\PSoC4/BLE.c ****         {
 907:Generated_Source\PSoC4/BLE.c ****             #ifdef CYBLE_SCN_PKT_INDEX_BLUETOOTH_DEVICE_ADDRESS
 908:Generated_Source\PSoC4/BLE.c ****                 destBuffer = &cyBle_scanRspData.scanRspData[CYBLE_SCN_PKT_INDEX_BLUETOOTH_DEVICE_AD
 909:Generated_Source\PSoC4/BLE.c ****             #endif /* CYBLE_SCN_PKT_INDEX_BLUETOOTH_DEVICE_ADDRESS */    
 910:Generated_Source\PSoC4/BLE.c ****         }
 911:Generated_Source\PSoC4/BLE.c ****         
 912:Generated_Source\PSoC4/BLE.c ****         if(destBuffer != NULL)
 913:Generated_Source\PSoC4/BLE.c ****         {
 914:Generated_Source\PSoC4/BLE.c ****             /* Update Device Address type */
 915:Generated_Source\PSoC4/BLE.c ****             destBuffer[0u] = bdAddr->type;
 916:Generated_Source\PSoC4/BLE.c ****             
 917:Generated_Source\PSoC4/BLE.c ****             for(i = 0u; i < CYBLE_GAP_BD_ADDR_SIZE; i++)
 918:Generated_Source\PSoC4/BLE.c ****             {
 919:Generated_Source\PSoC4/BLE.c ****                 destBuffer[i + 1u] = bdAddr->bdAddr[i];
 920:Generated_Source\PSoC4/BLE.c ****             }
 921:Generated_Source\PSoC4/BLE.c ****         }
 922:Generated_Source\PSoC4/BLE.c ****     }
 923:Generated_Source\PSoC4/BLE.c ****   
 924:Generated_Source\PSoC4/BLE.c **** #endif /* CYBLE_GAP_ROLE_PERIPHERAL || CYBLE_GAP_ROLE_BROADCASTER */
 925:Generated_Source\PSoC4/BLE.c **** 
 926:Generated_Source\PSoC4/BLE.c **** 
 927:Generated_Source\PSoC4/BLE.c **** #if(CYBLE_GAP_ROLE_CENTRAL || CYBLE_GAP_ROLE_OBSERVER)
 928:Generated_Source\PSoC4/BLE.c **** 
 929:Generated_Source\PSoC4/BLE.c ****     /******************************************************************************
 930:Generated_Source\PSoC4/BLE.c ****     * Function Name: CyBle_GapcStartScan
 931:Generated_Source\PSoC4/BLE.c ****     ***************************************************************************//**
 932:Generated_Source\PSoC4/BLE.c ****     * 
 933:Generated_Source\PSoC4/BLE.c ****     *   This function is used for discovering GAP peripheral devices that are 
 934:Generated_Source\PSoC4/BLE.c ****     *   available for connection. It performs the scanning routine using the 
 935:Generated_Source\PSoC4/BLE.c ****     *   parameters entered in the component's customizer.
 936:Generated_Source\PSoC4/BLE.c ****     *   
 937:Generated_Source\PSoC4/BLE.c ****     *   As soon as the discovery operation starts, CYBLE_EVT_GAPC_SCAN_START_STOP 
 938:Generated_Source\PSoC4/BLE.c ****     *   event is generated. The CYBLE_EVT_GAPC_SCAN_PROGRESS_RESULT event is 
 939:Generated_Source\PSoC4/BLE.c ****     *   generated when a GAP peripheral device is located. There are three discovery
 940:Generated_Source\PSoC4/BLE.c ****     *   procedures can be selected in the customizer's GUI:
 941:Generated_Source\PSoC4/BLE.c ****     *   
 942:Generated_Source\PSoC4/BLE.c ****     *   * Observation procedure: A device performing the observer role receives only
 943:Generated_Source\PSoC4/BLE.c ****     *                            advertisement data from devices irrespective of 
ARM GAS  C:\Users\jupac\AppData\Local\Temp\ccOKFWor.s 			page 18


 944:Generated_Source\PSoC4/BLE.c ****     *                            their discoverable mode settings. Advertisement 
 945:Generated_Source\PSoC4/BLE.c ****     *                            data received is provided by the event,      
 946:Generated_Source\PSoC4/BLE.c ****     *                            CYBLE_EVT_GAPC_SCAN_PROGRESS_RESULT. This procedure
 947:Generated_Source\PSoC4/BLE.c ****     *                            requires the scanType sub parameter to be passive
 948:Generated_Source\PSoC4/BLE.c ****     *                            scanning. 
 949:Generated_Source\PSoC4/BLE.c ****     *   
 950:Generated_Source\PSoC4/BLE.c ****     *   * Limited Discovery procedure: A device performing the limited discovery
 951:Generated_Source\PSoC4/BLE.c ****     *                                  procedure receives advertisement data and 
 952:Generated_Source\PSoC4/BLE.c ****     *                                  scan# response data from devices in the 
 953:Generated_Source\PSoC4/BLE.c ****     *                                  limited discoverable mode only. Received data
 954:Generated_Source\PSoC4/BLE.c ****     *                                  is provided by the event, 
 955:Generated_Source\PSoC4/BLE.c ****     *                                  CYBLE_EVT_GAPC_SCAN_PROGRESS_RESULT. This 
 956:Generated_Source\PSoC4/BLE.c ****     *                                  procedure requires the scanType sub-parameter 
 957:Generated_Source\PSoC4/BLE.c ****     *                                  to be active scanning.
 958:Generated_Source\PSoC4/BLE.c ****     *   
 959:Generated_Source\PSoC4/BLE.c ****     *   * General Discovery procedure: A device performing the general discovery 
 960:Generated_Source\PSoC4/BLE.c ****     *                                  procedure receives the advertisement data and
 961:Generated_Source\PSoC4/BLE.c ****     *                                  scan response data from devices in both 
 962:Generated_Source\PSoC4/BLE.c ****     *                                  limited discoverable mode and the general 
 963:Generated_Source\PSoC4/BLE.c ****     *                                  discoverable mode. Received data is provided
 964:Generated_Source\PSoC4/BLE.c ****     *                                  by the event,
 965:Generated_Source\PSoC4/BLE.c ****     *                                  CYBLE_EVT_GAPC_SCAN_PROGRESS_RESULT. This 
 966:Generated_Source\PSoC4/BLE.c ****     *                                  procedure requires the scanType sub-parameter
 967:Generated_Source\PSoC4/BLE.c ****     *                                  to be active scanning.
 968:Generated_Source\PSoC4/BLE.c ****     *   
 969:Generated_Source\PSoC4/BLE.c ****     *   Every Advertisement / Scan response packet received results in a new event, 
 970:Generated_Source\PSoC4/BLE.c ****     *   CYBLE_EVT_GAPC_SCAN_PROGRESS_RESULT.
 971:Generated_Source\PSoC4/BLE.c ****     *   If 'scanTo' sub-parameter is a non-zero value, then upon commencement of 
 972:Generated_Source\PSoC4/BLE.c ****     *   discovery procedure and elapsed time = 'scanTo', CYBLE_EVT_TIMEOUT event
 973:Generated_Source\PSoC4/BLE.c ****     *   is generated with the event parameter indicating CYBLE_GAP_SCAN_TO.
 974:Generated_Source\PSoC4/BLE.c ****     *   Possible generated events are:
 975:Generated_Source\PSoC4/BLE.c ****     *   * CYBLE_EVT_GAPC_SCAN_START_STOP: If a device started or stopped scanning. 
 976:Generated_Source\PSoC4/BLE.c ****     *                                     Use CyBle_GetState() to determine the 
 977:Generated_Source\PSoC4/BLE.c ****     *                                     state. Sequential scanning could be 
 978:Generated_Source\PSoC4/BLE.c ****     *                                     started when CYBLE_STATE_DISCONNECTED 
 979:Generated_Source\PSoC4/BLE.c ****     *                                     state is returned. 
 980:Generated_Source\PSoC4/BLE.c ****     *   * CYBLE_EVT_GAPC_SCAN_PROGRESS_RESULT 
 981:Generated_Source\PSoC4/BLE.c ****     *   * CYBLE_EVT_TIMEOUT (CYBLE_GAP_SCAN_TO)
 982:Generated_Source\PSoC4/BLE.c ****     * 
 983:Generated_Source\PSoC4/BLE.c ****     *   \param scanningIntervalType:  Fast or slow scanning interval with
 984:Generated_Source\PSoC4/BLE.c ****     *       timings entered in Scan settings section of the customizer.
 985:Generated_Source\PSoC4/BLE.c ****     * 	  * CYBLE_SCANNING_FAST   0x00u
 986:Generated_Source\PSoC4/BLE.c ****     * 	  * CYBLE_SCANNING_SLOW   0x01u
 987:Generated_Source\PSoC4/BLE.c ****     * 	  * CYBLE_SCANNING_CUSTOM 0x02u
 988:Generated_Source\PSoC4/BLE.c ****     * 
 989:Generated_Source\PSoC4/BLE.c ****     * \return
 990:Generated_Source\PSoC4/BLE.c ****     *  CYBLE_API_RESULT_T : Return value indicates if the function succeeded or
 991:Generated_Source\PSoC4/BLE.c ****     *  failed. Following are the possible error codes.
 992:Generated_Source\PSoC4/BLE.c ****     *
 993:Generated_Source\PSoC4/BLE.c ****     *   Errors codes                       | Description
 994:Generated_Source\PSoC4/BLE.c ****     *   ---------------------------------- | -----------------------------------
 995:Generated_Source\PSoC4/BLE.c ****     *   CYBLE_ERROR_OK                     | On successful operation.
 996:Generated_Source\PSoC4/BLE.c ****     *   CYBLE_ERROR_STACK_INTERNAL         | An error occurred in the BLE stack.
 997:Generated_Source\PSoC4/BLE.c ****     *   CYBLE_ERROR_INVALID_PARAMETER      | On passing an invalid parameter.
 998:Generated_Source\PSoC4/BLE.c ****     *  
 999:Generated_Source\PSoC4/BLE.c ****     *******************************************************************************/
1000:Generated_Source\PSoC4/BLE.c ****     CYBLE_API_RESULT_T CyBle_GapcStartScan(uint8 scanningIntervalType)
ARM GAS  C:\Users\jupac\AppData\Local\Temp\ccOKFWor.s 			page 19


1001:Generated_Source\PSoC4/BLE.c ****     {
1002:Generated_Source\PSoC4/BLE.c ****         CYBLE_API_RESULT_T apiResult;
1003:Generated_Source\PSoC4/BLE.c **** 
1004:Generated_Source\PSoC4/BLE.c ****         if(scanningIntervalType > CYBLE_SCANNING_CUSTOM)
1005:Generated_Source\PSoC4/BLE.c ****         {
1006:Generated_Source\PSoC4/BLE.c ****             apiResult = CYBLE_ERROR_INVALID_PARAMETER;
1007:Generated_Source\PSoC4/BLE.c ****         }
1008:Generated_Source\PSoC4/BLE.c ****         else
1009:Generated_Source\PSoC4/BLE.c ****         {
1010:Generated_Source\PSoC4/BLE.c ****             if(scanningIntervalType == CYBLE_SCANNING_FAST)
1011:Generated_Source\PSoC4/BLE.c ****             {
1012:Generated_Source\PSoC4/BLE.c ****                 cyBle_discoveryInfo.scanTo = CYBLE_FAST_SCAN_TIMEOUT;
1013:Generated_Source\PSoC4/BLE.c ****                 cyBle_discoveryInfo.scanIntv = CYBLE_FAST_SCAN_INTERVAL;
1014:Generated_Source\PSoC4/BLE.c ****                 cyBle_discoveryInfo.scanWindow = CYBLE_FAST_SCAN_WINDOW;
1015:Generated_Source\PSoC4/BLE.c ****             }
1016:Generated_Source\PSoC4/BLE.c ****             else if(scanningIntervalType == CYBLE_SCANNING_SLOW)
1017:Generated_Source\PSoC4/BLE.c ****             {
1018:Generated_Source\PSoC4/BLE.c ****                 cyBle_discoveryInfo.scanTo = CYBLE_SLOW_SCAN_TIMEOUT;
1019:Generated_Source\PSoC4/BLE.c ****                 cyBle_discoveryInfo.scanIntv = CYBLE_SLOW_SCAN_INTERVAL;
1020:Generated_Source\PSoC4/BLE.c ****                 cyBle_discoveryInfo.scanWindow = CYBLE_SLOW_SCAN_WINDOW;
1021:Generated_Source\PSoC4/BLE.c ****             }       
1022:Generated_Source\PSoC4/BLE.c ****             else /* Do not update scanning intervals */
1023:Generated_Source\PSoC4/BLE.c ****             {
1024:Generated_Source\PSoC4/BLE.c ****             }
1025:Generated_Source\PSoC4/BLE.c ****             
1026:Generated_Source\PSoC4/BLE.c ****             cyBle_scanningIntervalType = scanningIntervalType;
1027:Generated_Source\PSoC4/BLE.c ****             apiResult = CyBle_GapcStartDiscovery(&cyBle_discoveryInfo);
1028:Generated_Source\PSoC4/BLE.c ****         
1029:Generated_Source\PSoC4/BLE.c ****             if(apiResult == CYBLE_ERROR_OK)
1030:Generated_Source\PSoC4/BLE.c ****             {
1031:Generated_Source\PSoC4/BLE.c ****                 cyBle_eventHandlerFlag |= CYBLE_START_FLAG;
1032:Generated_Source\PSoC4/BLE.c ****             }
1033:Generated_Source\PSoC4/BLE.c ****         }
1034:Generated_Source\PSoC4/BLE.c ****        
1035:Generated_Source\PSoC4/BLE.c ****         return (apiResult);
1036:Generated_Source\PSoC4/BLE.c ****     }
1037:Generated_Source\PSoC4/BLE.c ****     
1038:Generated_Source\PSoC4/BLE.c ****     
1039:Generated_Source\PSoC4/BLE.c ****     /******************************************************************************
1040:Generated_Source\PSoC4/BLE.c ****     * Function Name: CyBle_GapcStopScan
1041:Generated_Source\PSoC4/BLE.c ****     ***************************************************************************//**
1042:Generated_Source\PSoC4/BLE.c ****     * 
1043:Generated_Source\PSoC4/BLE.c ****     *   This function used to stop the discovery of devices. On stopping discovery
1044:Generated_Source\PSoC4/BLE.c ****     *   operation, CYBLE_EVT_GAPC_SCAN_START_STOP event is generated. Application
1045:Generated_Source\PSoC4/BLE.c ****     *   layer needs to keep track of the function call made before receiving this
1046:Generated_Source\PSoC4/BLE.c ****     *   event to associate this event with either the start or stop discovery
1047:Generated_Source\PSoC4/BLE.c ****     *   function.
1048:Generated_Source\PSoC4/BLE.c ****     * 
1049:Generated_Source\PSoC4/BLE.c ****     *   Possible events generated are:
1050:Generated_Source\PSoC4/BLE.c ****     *    * CYBLE_EVT_GAPC_SCAN_START_STOP
1051:Generated_Source\PSoC4/BLE.c ****     * 
1052:Generated_Source\PSoC4/BLE.c ****     *  \return
1053:Generated_Source\PSoC4/BLE.c ****     *   None
1054:Generated_Source\PSoC4/BLE.c ****     * 
1055:Generated_Source\PSoC4/BLE.c ****     *******************************************************************************/
1056:Generated_Source\PSoC4/BLE.c ****     void CyBle_GapcStopScan(void)
1057:Generated_Source\PSoC4/BLE.c ****     {
ARM GAS  C:\Users\jupac\AppData\Local\Temp\ccOKFWor.s 			page 20


1058:Generated_Source\PSoC4/BLE.c ****         CyBle_GapcStopDiscovery();
1059:Generated_Source\PSoC4/BLE.c ****         
1060:Generated_Source\PSoC4/BLE.c ****         cyBle_eventHandlerFlag |= CYBLE_STOP_FLAG;
1061:Generated_Source\PSoC4/BLE.c ****     }
1062:Generated_Source\PSoC4/BLE.c **** 
1063:Generated_Source\PSoC4/BLE.c ****     
1064:Generated_Source\PSoC4/BLE.c **** #endif /* CYBLE_GAP_ROLE_CENTRAL || CYBLE_GAP_ROLE_OBSERVER */
1065:Generated_Source\PSoC4/BLE.c **** 
1066:Generated_Source\PSoC4/BLE.c **** 
1067:Generated_Source\PSoC4/BLE.c **** #if(CYBLE_GAP_ROLE_CENTRAL)
1068:Generated_Source\PSoC4/BLE.c **** 
1069:Generated_Source\PSoC4/BLE.c ****     /******************************************************************************
1070:Generated_Source\PSoC4/BLE.c ****     * Function Name: CyBle_GapcConnectDevice
1071:Generated_Source\PSoC4/BLE.c ****     ***************************************************************************//**
1072:Generated_Source\PSoC4/BLE.c ****     * 
1073:Generated_Source\PSoC4/BLE.c ****     *  This function is used to send a connection request to the remote device with
1074:Generated_Source\PSoC4/BLE.c ****     *  the connection parameters set in the component customizer. This function needs
1075:Generated_Source\PSoC4/BLE.c ****     *  to be called only once after the target device is discovered by 
1076:Generated_Source\PSoC4/BLE.c ****     *  CyBle_GapcStartScan() and further scanning has stopped. Scanning is 
1077:Generated_Source\PSoC4/BLE.c ****     *  successfully stopped on invoking CyBle_GapcStopScan() and then receiving the
1078:Generated_Source\PSoC4/BLE.c ****     *  event CYBLE_EVT_GAPC_SCAN_START_STOP with sub-parameter 'success' = 0x01u.
1079:Generated_Source\PSoC4/BLE.c ****     *  
1080:Generated_Source\PSoC4/BLE.c ****     *  On successful connection, the following events are generated at the GAP 
1081:Generated_Source\PSoC4/BLE.c ****     *  Central device (as well as the GAP Peripheral device), in the following order.
1082:Generated_Source\PSoC4/BLE.c ****     *  * CYBLE_EVT_GATT_CONNECT_IND
1083:Generated_Source\PSoC4/BLE.c ****     *  * CYBLE_EVT_GAP_DEVICE_CONNECTED - If the device connects to a GAP Central and 
1084:Generated_Source\PSoC4/BLE.c ****     *    Link Layer Privacy is disabled in component customizer.
1085:Generated_Source\PSoC4/BLE.c ****     *  * CYBLE_EVT_GAP_ENHANCE_CONN_COMPLETE - If the device connects to a GAP Central and 
1086:Generated_Source\PSoC4/BLE.c ****     *    Link Layer Privacy is enabled in component customizer.
1087:Generated_Source\PSoC4/BLE.c ****     *  * CYBLE_EVT_GAP_DEVICE_CONNECTED
1088:Generated_Source\PSoC4/BLE.c ****     *  
1089:Generated_Source\PSoC4/BLE.c ****     *  A procedure is considered to have timed out if a connection response packet is 
1090:Generated_Source\PSoC4/BLE.c ****     *  not received within time set by cyBle_connectingTimeout global variable
1091:Generated_Source\PSoC4/BLE.c ****     *  (30 seconds by default). CYBLE_EVT_TIMEOUT event with CYBLE_GENERIC_TO parameter
1092:Generated_Source\PSoC4/BLE.c ****     *  will indicate about connection procedure timeout. Connection will automatically
1093:Generated_Source\PSoC4/BLE.c ****     *  be canceled and state will be changed to CYBLE_STATE_DISCONNECTED.
1094:Generated_Source\PSoC4/BLE.c ****     * 
1095:Generated_Source\PSoC4/BLE.c ****     *  \param address: The device address of the remote device to connect to. 
1096:Generated_Source\PSoC4/BLE.c ****     *  
1097:Generated_Source\PSoC4/BLE.c ****     * \return
1098:Generated_Source\PSoC4/BLE.c ****     *  CYBLE_API_RESULT_T : Return value indicates if the function succeeded or 
1099:Generated_Source\PSoC4/BLE.c ****     *  failed. Following are the possible error codes.
1100:Generated_Source\PSoC4/BLE.c ****     *
1101:Generated_Source\PSoC4/BLE.c ****     *   Errors codes                       | Description
1102:Generated_Source\PSoC4/BLE.c ****     *   ------------                       | -----------
1103:Generated_Source\PSoC4/BLE.c ****     *   CYBLE_ERROR_OK                     | On successful operation.
1104:Generated_Source\PSoC4/BLE.c ****     *   CYBLE_ERROR_STACK_INTERNAL         | On error occurred in the BLE stack.
1105:Generated_Source\PSoC4/BLE.c ****     *   CYBLE_ERROR_INVALID_PARAMETER      | On passing an invalid parameter.
1106:Generated_Source\PSoC4/BLE.c ****     *   CYBLE_ERROR_INVALID_STATE          | On calling this function not in Disconnected state.
1107:Generated_Source\PSoC4/BLE.c ****     *  
1108:Generated_Source\PSoC4/BLE.c ****     ******************************************************************************/
1109:Generated_Source\PSoC4/BLE.c ****     CYBLE_API_RESULT_T CyBle_GapcConnectDevice(const CYBLE_GAP_BD_ADDR_T * address)
1110:Generated_Source\PSoC4/BLE.c ****     {
1111:Generated_Source\PSoC4/BLE.c ****         CYBLE_API_RESULT_T apiResult;
1112:Generated_Source\PSoC4/BLE.c ****         uint8 i;
1113:Generated_Source\PSoC4/BLE.c **** 
1114:Generated_Source\PSoC4/BLE.c ****         if(CyBle_GetState() != CYBLE_STATE_DISCONNECTED)
ARM GAS  C:\Users\jupac\AppData\Local\Temp\ccOKFWor.s 			page 21


1115:Generated_Source\PSoC4/BLE.c ****         {
1116:Generated_Source\PSoC4/BLE.c ****             apiResult = CYBLE_ERROR_INVALID_STATE;
1117:Generated_Source\PSoC4/BLE.c ****         }
1118:Generated_Source\PSoC4/BLE.c ****         else if(address == NULL)
1119:Generated_Source\PSoC4/BLE.c ****         {
1120:Generated_Source\PSoC4/BLE.c ****             apiResult = CYBLE_ERROR_INVALID_PARAMETER;
1121:Generated_Source\PSoC4/BLE.c ****         }
1122:Generated_Source\PSoC4/BLE.c ****         else
1123:Generated_Source\PSoC4/BLE.c ****         {
1124:Generated_Source\PSoC4/BLE.c ****             for(i = 0u; i < CYBLE_GAP_BD_ADDR_SIZE; i++)
1125:Generated_Source\PSoC4/BLE.c ****             {
1126:Generated_Source\PSoC4/BLE.c ****                 cyBle_connectionParameters.peerBdAddr[i] = address->bdAddr[i];
1127:Generated_Source\PSoC4/BLE.c ****             }
1128:Generated_Source\PSoC4/BLE.c ****             cyBle_connectionParameters.peerAddrType = address -> type;
1129:Generated_Source\PSoC4/BLE.c ****             apiResult = CyBle_GapcInitConnection(&cyBle_connectionParameters);
1130:Generated_Source\PSoC4/BLE.c ****             
1131:Generated_Source\PSoC4/BLE.c ****             if(apiResult == CYBLE_ERROR_OK)
1132:Generated_Source\PSoC4/BLE.c ****             {
1133:Generated_Source\PSoC4/BLE.c ****                 CyBle_SetState(CYBLE_STATE_CONNECTING);
1134:Generated_Source\PSoC4/BLE.c ****                 if(cyBle_connectingTimeout != 0u)
1135:Generated_Source\PSoC4/BLE.c ****                 {
1136:Generated_Source\PSoC4/BLE.c ****                     (void)CyBle_StartTimer(cyBle_connectingTimeout);
1137:Generated_Source\PSoC4/BLE.c ****                 }
1138:Generated_Source\PSoC4/BLE.c ****             }
1139:Generated_Source\PSoC4/BLE.c ****         }
1140:Generated_Source\PSoC4/BLE.c ****         return (apiResult);
1141:Generated_Source\PSoC4/BLE.c ****     }
1142:Generated_Source\PSoC4/BLE.c ****     
1143:Generated_Source\PSoC4/BLE.c **** 
1144:Generated_Source\PSoC4/BLE.c ****     /******************************************************************************
1145:Generated_Source\PSoC4/BLE.c ****     * Function Name: CyBle_GapcCancelDeviceConnection
1146:Generated_Source\PSoC4/BLE.c ****     ***************************************************************************//**
1147:Generated_Source\PSoC4/BLE.c ****     * 
1148:Generated_Source\PSoC4/BLE.c ****     *  This function cancels a previously initiated connection with the remote 
1149:Generated_Source\PSoC4/BLE.c ****     *  device. It is a blocking function. No event is generated on calling this 
1150:Generated_Source\PSoC4/BLE.c ****     *  function. If the devices are already connected then this function should not
1151:Generated_Source\PSoC4/BLE.c ****     *  be used. If you intend to disconnect from an existing connection, the function
1152:Generated_Source\PSoC4/BLE.c ****     *  CyBle_GapDisconnect() should be used.
1153:Generated_Source\PSoC4/BLE.c ****     * 
1154:Generated_Source\PSoC4/BLE.c ****     * \return
1155:Generated_Source\PSoC4/BLE.c ****     *  CYBLE_API_RESULT_T : Return value indicates if the function succeeded or 
1156:Generated_Source\PSoC4/BLE.c ****     *  failed. Following are the possible error codes.
1157:Generated_Source\PSoC4/BLE.c ****     *
1158:Generated_Source\PSoC4/BLE.c ****     *   Errors codes                       | Description
1159:Generated_Source\PSoC4/BLE.c ****     *   ---------------------------------- | --------------------------------------
1160:Generated_Source\PSoC4/BLE.c ****     *   CYBLE_ERROR_OK                     | On successful operation.
1161:Generated_Source\PSoC4/BLE.c ****     *   CYBLE_ERROR_STACK_INTERNAL         | An error occurred in the BLE stack.
1162:Generated_Source\PSoC4/BLE.c ****     *   CYBLE_ERROR_INVALID_STATE          | On calling this function not in Connecting state.
1163:Generated_Source\PSoC4/BLE.c ****     *  
1164:Generated_Source\PSoC4/BLE.c ****     *******************************************************************************/
1165:Generated_Source\PSoC4/BLE.c ****     CYBLE_API_RESULT_T CyBle_GapcCancelDeviceConnection(void)
1166:Generated_Source\PSoC4/BLE.c ****     {
1167:Generated_Source\PSoC4/BLE.c ****         CYBLE_API_RESULT_T apiResult;
1168:Generated_Source\PSoC4/BLE.c ****         
1169:Generated_Source\PSoC4/BLE.c ****         if(CyBle_GetState() != CYBLE_STATE_CONNECTING)
1170:Generated_Source\PSoC4/BLE.c ****         {
1171:Generated_Source\PSoC4/BLE.c ****             apiResult = CYBLE_ERROR_INVALID_STATE;
ARM GAS  C:\Users\jupac\AppData\Local\Temp\ccOKFWor.s 			page 22


1172:Generated_Source\PSoC4/BLE.c ****         }
1173:Generated_Source\PSoC4/BLE.c ****         else 
1174:Generated_Source\PSoC4/BLE.c ****         {
1175:Generated_Source\PSoC4/BLE.c ****             apiResult = CyBle_GapcCancelConnection();
1176:Generated_Source\PSoC4/BLE.c ****             
1177:Generated_Source\PSoC4/BLE.c ****             if(cyBle_connectingTimeout != 0u)
1178:Generated_Source\PSoC4/BLE.c ****             {
1179:Generated_Source\PSoC4/BLE.c ****                 (void)CyBle_StopTimer();
1180:Generated_Source\PSoC4/BLE.c ****             }
1181:Generated_Source\PSoC4/BLE.c **** 
1182:Generated_Source\PSoC4/BLE.c ****             if(apiResult == CYBLE_ERROR_OK)
1183:Generated_Source\PSoC4/BLE.c ****             {
1184:Generated_Source\PSoC4/BLE.c ****                 CyBle_SetState(CYBLE_STATE_DISCONNECTED);
1185:Generated_Source\PSoC4/BLE.c ****             }
1186:Generated_Source\PSoC4/BLE.c ****         }
1187:Generated_Source\PSoC4/BLE.c ****         return (apiResult);
1188:Generated_Source\PSoC4/BLE.c ****     }    
1189:Generated_Source\PSoC4/BLE.c **** 
1190:Generated_Source\PSoC4/BLE.c ****     
1191:Generated_Source\PSoC4/BLE.c **** #endif /* CYBLE_GAP_ROLE_CENTRAL */
1192:Generated_Source\PSoC4/BLE.c **** 
1193:Generated_Source\PSoC4/BLE.c **** 
1194:Generated_Source\PSoC4/BLE.c **** #if(CYBLE_GATT_ROLE_SERVER)
1195:Generated_Source\PSoC4/BLE.c **** 
1196:Generated_Source\PSoC4/BLE.c **** #if(CYBLE_GAP_ROLE_PERIPHERAL)
1197:Generated_Source\PSoC4/BLE.c **** 
1198:Generated_Source\PSoC4/BLE.c ****         /******************************************************************************
1199:Generated_Source\PSoC4/BLE.c ****         * Function Name: CyBle_ChangeAdLocalName
1200:Generated_Source\PSoC4/BLE.c ****         ***************************************************************************//**
1201:Generated_Source\PSoC4/BLE.c ****         *  This function is used to set the local device name in the advertisement or 
1202:Generated_Source\PSoC4/BLE.c ****         *  scan response data structure.
1203:Generated_Source\PSoC4/BLE.c ****         * 
1204:Generated_Source\PSoC4/BLE.c ****         *  \param name: The local device name string to be set in advertisement data 
1205:Generated_Source\PSoC4/BLE.c ****         *            structure.
1206:Generated_Source\PSoC4/BLE.c ****         *  \param dest: 0 - advertisement structure, not zero value selects scan response
1207:Generated_Source\PSoC4/BLE.c ****         *              structure.
1208:Generated_Source\PSoC4/BLE.c ****         * 
1209:Generated_Source\PSoC4/BLE.c ****         * \return
1210:Generated_Source\PSoC4/BLE.c ****         *  None
1211:Generated_Source\PSoC4/BLE.c ****         *  
1212:Generated_Source\PSoC4/BLE.c ****         *******************************************************************************/
1213:Generated_Source\PSoC4/BLE.c ****         static void CyBle_ChangeAdLocalName(const char8 name[], uint8 dest)
1214:Generated_Source\PSoC4/BLE.c ****         {
  27              		.loc 1 1214 0
  28              		.cfi_startproc
  29              		@ args = 0, pretend = 0, frame = 0
  30              		@ frame_needed = 0, uses_anonymous_args = 0
  31              	.LVL0:
  32 0000 70B5     		push	{r4, r5, r6, lr}
  33              		.cfi_def_cfa_offset 16
  34              		.cfi_offset 4, -16
  35              		.cfi_offset 5, -12
  36              		.cfi_offset 6, -8
  37              		.cfi_offset 14, -4
  38              	.LVL1:
1215:Generated_Source\PSoC4/BLE.c ****             uint8 i;
1216:Generated_Source\PSoC4/BLE.c ****             uint8 flag = 0u;
ARM GAS  C:\Users\jupac\AppData\Local\Temp\ccOKFWor.s 			page 23


1217:Generated_Source\PSoC4/BLE.c ****             uint8 adLength = 0u;
1218:Generated_Source\PSoC4/BLE.c ****             uint8 byteCounter = 0u;
1219:Generated_Source\PSoC4/BLE.c ****             uint8 *destBuffer;
1220:Generated_Source\PSoC4/BLE.c ****             uint8 maxLength;
1221:Generated_Source\PSoC4/BLE.c ****             
1222:Generated_Source\PSoC4/BLE.c ****             if(dest == 0u)      /* Destination - advertising structure */
  39              		.loc 1 1222 0
  40 0002 0029     		cmp	r1, #0
  41 0004 05D1     		bne	.L2
  42              	.LVL2:
1223:Generated_Source\PSoC4/BLE.c ****             {
1224:Generated_Source\PSoC4/BLE.c ****                 destBuffer = cyBle_discoveryData.advData;
1225:Generated_Source\PSoC4/BLE.c ****                 maxLength = cyBle_discoveryData.advDataLen;
  43              		.loc 1 1225 0
  44 0006 1A49     		ldr	r1, .L14
  45              	.LVL3:
  46 0008 CE7F     		ldrb	r6, [r1, #31]
  47              	.LVL4:
  48              	.L4:
1226:Generated_Source\PSoC4/BLE.c ****             }
1227:Generated_Source\PSoC4/BLE.c ****             else                /* Destination - scan response structure */
1228:Generated_Source\PSoC4/BLE.c ****             {
1229:Generated_Source\PSoC4/BLE.c ****                 destBuffer = cyBle_scanRspData.scanRspData;
1230:Generated_Source\PSoC4/BLE.c ****                 maxLength = cyBle_scanRspData.scanRspDataLen;
1231:Generated_Source\PSoC4/BLE.c ****             }
1232:Generated_Source\PSoC4/BLE.c ****             
1233:Generated_Source\PSoC4/BLE.c ****             while((byteCounter < maxLength) && (flag == 0u))
1234:Generated_Source\PSoC4/BLE.c ****             {
1235:Generated_Source\PSoC4/BLE.c ****                 adLength = destBuffer[byteCounter];
1236:Generated_Source\PSoC4/BLE.c ****                 
1237:Generated_Source\PSoC4/BLE.c ****                 if(0u != adLength)
1238:Generated_Source\PSoC4/BLE.c ****                 {
1239:Generated_Source\PSoC4/BLE.c ****                     /* Increment byte counter so it can point to AD type */
1240:Generated_Source\PSoC4/BLE.c ****                     byteCounter++;
1241:Generated_Source\PSoC4/BLE.c ****                     
1242:Generated_Source\PSoC4/BLE.c ****                     if((destBuffer[byteCounter] == CYBLE_SHORT_LOCAL_NAME) || 
1243:Generated_Source\PSoC4/BLE.c ****                        (destBuffer[byteCounter] == CYBLE_COMPLETE_LOCAL_NAME))
1244:Generated_Source\PSoC4/BLE.c ****                     {
1245:Generated_Source\PSoC4/BLE.c ****                         /* Start of the Local Name AD type was fount. Set flag and exit the loop. *
1246:Generated_Source\PSoC4/BLE.c ****                         flag = 1u;
  49              		.loc 1 1246 0
  50 000a 0023     		movs	r3, #0
  51 000c 0024     		movs	r4, #0
  52 000e 0025     		movs	r5, #0
  53 0010 10E0     		b	.L3
  54              	.LVL5:
  55              	.L2:
1230:Generated_Source\PSoC4/BLE.c ****             }
  56              		.loc 1 1230 0
  57 0012 1849     		ldr	r1, .L14+4
  58              	.LVL6:
  59 0014 CE7F     		ldrb	r6, [r1, #31]
  60              	.LVL7:
  61 0016 F8E7     		b	.L4
  62              	.LVL8:
  63              	.L7:
1235:Generated_Source\PSoC4/BLE.c ****                 
ARM GAS  C:\Users\jupac\AppData\Local\Temp\ccOKFWor.s 			page 24


  64              		.loc 1 1235 0
  65 0018 CC5C     		ldrb	r4, [r1, r3]
  66              	.LVL9:
1237:Generated_Source\PSoC4/BLE.c ****                 {
  67              		.loc 1 1237 0
  68 001a 002C     		cmp	r4, #0
  69 001c 0ED0     		beq	.L5
1240:Generated_Source\PSoC4/BLE.c ****                     
  70              		.loc 1 1240 0
  71 001e 0133     		adds	r3, r3, #1
  72              	.LVL10:
  73 0020 DBB2     		uxtb	r3, r3
  74              	.LVL11:
1242:Generated_Source\PSoC4/BLE.c ****                        (destBuffer[byteCounter] == CYBLE_COMPLETE_LOCAL_NAME))
  75              		.loc 1 1242 0
  76 0022 CA5C     		ldrb	r2, [r1, r3]
  77 0024 083A     		subs	r2, r2, #8
  78 0026 D2B2     		uxtb	r2, r2
  79 0028 012A     		cmp	r2, #1
  80 002a 02D9     		bls	.L13
1247:Generated_Source\PSoC4/BLE.c ****                     }
1248:Generated_Source\PSoC4/BLE.c ****                     else
1249:Generated_Source\PSoC4/BLE.c ****                     {
1250:Generated_Source\PSoC4/BLE.c ****                         byteCounter += adLength;
  81              		.loc 1 1250 0
  82 002c E318     		adds	r3, r4, r3
  83              	.LVL12:
  84 002e DBB2     		uxtb	r3, r3
  85              	.LVL13:
  86 0030 00E0     		b	.L3
  87              	.L13:
1246:Generated_Source\PSoC4/BLE.c ****                     }
  88              		.loc 1 1246 0
  89 0032 0125     		movs	r5, #1
  90              	.LVL14:
  91              	.L3:
1233:Generated_Source\PSoC4/BLE.c ****             {
  92              		.loc 1 1233 0
  93 0034 B342     		cmp	r3, r6
  94 0036 01D2     		bcs	.L5
1233:Generated_Source\PSoC4/BLE.c ****             {
  95              		.loc 1 1233 0 is_stmt 0 discriminator 1
  96 0038 002D     		cmp	r5, #0
  97 003a EDD0     		beq	.L7
  98              	.L5:
1251:Generated_Source\PSoC4/BLE.c ****                     }
1252:Generated_Source\PSoC4/BLE.c ****                 }
1253:Generated_Source\PSoC4/BLE.c ****                 else
1254:Generated_Source\PSoC4/BLE.c ****                 {
1255:Generated_Source\PSoC4/BLE.c ****                     /* The end of advertisement data structure was encountered though exit the loop
1256:Generated_Source\PSoC4/BLE.c ****                     break;
1257:Generated_Source\PSoC4/BLE.c ****                 }
1258:Generated_Source\PSoC4/BLE.c ****             }
1259:Generated_Source\PSoC4/BLE.c ****             
1260:Generated_Source\PSoC4/BLE.c ****             if(0u != flag)
  99              		.loc 1 1260 0 is_stmt 1
 100 003c 002D     		cmp	r5, #0
ARM GAS  C:\Users\jupac\AppData\Local\Temp\ccOKFWor.s 			page 25


 101 003e 16D0     		beq	.L1
1261:Generated_Source\PSoC4/BLE.c ****             {
1262:Generated_Source\PSoC4/BLE.c ****                 /* Reuse "adLength" to hold location of the last character of local name in 
1263:Generated_Source\PSoC4/BLE.c ****                    AD structure. */
1264:Generated_Source\PSoC4/BLE.c ****                 adLength += byteCounter;
 102              		.loc 1 1264 0
 103 0040 E418     		adds	r4, r4, r3
 104              	.LVL15:
 105 0042 E4B2     		uxtb	r4, r4
 106              	.LVL16:
1265:Generated_Source\PSoC4/BLE.c ****                 
1266:Generated_Source\PSoC4/BLE.c ****                 /* Increment byte counter to point to start of the local Name string */
1267:Generated_Source\PSoC4/BLE.c ****                 byteCounter++;
 107              		.loc 1 1267 0
 108 0044 0133     		adds	r3, r3, #1
 109              	.LVL17:
 110 0046 DBB2     		uxtb	r3, r3
 111              	.LVL18:
1268:Generated_Source\PSoC4/BLE.c ****                 
1269:Generated_Source\PSoC4/BLE.c ****                 for(i = byteCounter; ((i < (adLength)) && (CYBLE_NULL_CHARCTER != name[i - byteCoun
 112              		.loc 1 1269 0
 113 0048 1A00     		movs	r2, r3
 114 004a 02E0     		b	.L9
 115              	.LVL19:
 116              	.L11:
1270:Generated_Source\PSoC4/BLE.c ****                 {
1271:Generated_Source\PSoC4/BLE.c ****                     destBuffer[i] = (uint8)name[i - byteCounter];
 117              		.loc 1 1271 0 discriminator 4
 118 004c 8D54     		strb	r5, [r1, r2]
1269:Generated_Source\PSoC4/BLE.c ****                 {
 119              		.loc 1 1269 0 discriminator 4
 120 004e 0132     		adds	r2, r2, #1
 121              	.LVL20:
 122 0050 D2B2     		uxtb	r2, r2
 123              	.LVL21:
 124              	.L9:
1269:Generated_Source\PSoC4/BLE.c ****                 {
 125              		.loc 1 1269 0 is_stmt 0 discriminator 1
 126 0052 A242     		cmp	r2, r4
 127 0054 09D2     		bcs	.L10
1269:Generated_Source\PSoC4/BLE.c ****                 {
 128              		.loc 1 1269 0 discriminator 3
 129 0056 D51A     		subs	r5, r2, r3
 130 0058 455D     		ldrb	r5, [r0, r5]
 131 005a 002D     		cmp	r5, #0
 132 005c F6D1     		bne	.L11
 133 005e 04E0     		b	.L10
 134              	.LVL22:
 135              	.L12:
1272:Generated_Source\PSoC4/BLE.c ****                 }
1273:Generated_Source\PSoC4/BLE.c ****                 
1274:Generated_Source\PSoC4/BLE.c ****                 /* This loop handles the case when new local name is shorted than old one.
1275:Generated_Source\PSoC4/BLE.c ****                    In this case all remaining characters should be null characters. */
1276:Generated_Source\PSoC4/BLE.c ****                 while(adLength > i)
1277:Generated_Source\PSoC4/BLE.c ****                 {
1278:Generated_Source\PSoC4/BLE.c ****                     /* Terminate string */
1279:Generated_Source\PSoC4/BLE.c ****                     destBuffer[i] = (uint8)CYBLE_NULL_CHARCTER;
ARM GAS  C:\Users\jupac\AppData\Local\Temp\ccOKFWor.s 			page 26


 136              		.loc 1 1279 0 is_stmt 1
 137 0060 8B18     		adds	r3, r1, r2
 138 0062 0020     		movs	r0, #0
 139 0064 1870     		strb	r0, [r3]
1280:Generated_Source\PSoC4/BLE.c ****                     i++;
 140              		.loc 1 1280 0
 141 0066 0132     		adds	r2, r2, #1
 142              	.LVL23:
 143 0068 D2B2     		uxtb	r2, r2
 144              	.LVL24:
 145              	.L10:
1276:Generated_Source\PSoC4/BLE.c ****                 {
 146              		.loc 1 1276 0
 147 006a A242     		cmp	r2, r4
 148 006c F8D3     		bcc	.L12
 149              	.LVL25:
 150              	.L1:
1281:Generated_Source\PSoC4/BLE.c ****                 }
1282:Generated_Source\PSoC4/BLE.c ****             }
1283:Generated_Source\PSoC4/BLE.c ****         }
 151              		.loc 1 1283 0
 152              		@ sp needed
 153              	.LVL26:
 154              	.LVL27:
 155 006e 70BD     		pop	{r4, r5, r6, pc}
 156              	.L15:
 157              		.align	2
 158              	.L14:
 159 0070 00000000 		.word	.LANCHOR0
 160 0074 00000000 		.word	.LANCHOR1
 161              		.cfi_endproc
 162              	.LFE15:
 163              		.size	CyBle_ChangeAdLocalName, .-CyBle_ChangeAdLocalName
 164              		.section	.text.CyBle_ServiceInit,"ax",%progbits
 165              		.align	2
 166              		.global	CyBle_ServiceInit
 167              		.code	16
 168              		.thumb_func
 169              		.type	CyBle_ServiceInit, %function
 170              	CyBle_ServiceInit:
 171              	.LFB3:
 218:Generated_Source\PSoC4/BLE.c ****     #if(CYBLE_GATT_ROLE_CLIENT)
 172              		.loc 1 218 0
 173              		.cfi_startproc
 174              		@ args = 0, pretend = 0, frame = 0
 175              		@ frame_needed = 0, uses_anonymous_args = 0
 176 0000 10B5     		push	{r4, lr}
 177              		.cfi_def_cfa_offset 8
 178              		.cfi_offset 4, -8
 179              		.cfi_offset 14, -4
 308:Generated_Source\PSoC4/BLE.c ****     #endif /* CYBLE_IAS */
 180              		.loc 1 308 0
 181 0002 FFF7FEFF 		bl	CyBle_IasInit
 182              	.LVL28:
 366:Generated_Source\PSoC4/BLE.c **** 
 183              		.loc 1 366 0
 184              		@ sp needed
ARM GAS  C:\Users\jupac\AppData\Local\Temp\ccOKFWor.s 			page 27


 185 0006 10BD     		pop	{r4, pc}
 186              		.cfi_endproc
 187              	.LFE3:
 188              		.size	CyBle_ServiceInit, .-CyBle_ServiceInit
 189              		.section	.text.CyBle_Init,"ax",%progbits
 190              		.align	2
 191              		.global	CyBle_Init
 192              		.code	16
 193              		.thumb_func
 194              		.type	CyBle_Init, %function
 195              	CyBle_Init:
 196              	.LFB2:
 169:Generated_Source\PSoC4/BLE.c ****     cyBle_eventHandlerFlag = 0u;
 197              		.loc 1 169 0
 198              		.cfi_startproc
 199              		@ args = 0, pretend = 0, frame = 0
 200              		@ frame_needed = 0, uses_anonymous_args = 0
 201 0000 10B5     		push	{r4, lr}
 202              		.cfi_def_cfa_offset 8
 203              		.cfi_offset 4, -8
 204              		.cfi_offset 14, -4
 170:Generated_Source\PSoC4/BLE.c ****     cyBle_busyStatus = CYBLE_STACK_STATE_FREE;
 205              		.loc 1 170 0
 206 0002 0022     		movs	r2, #0
 207 0004 144B     		ldr	r3, .L18
 208 0006 1A70     		strb	r2, [r3]
 171:Generated_Source\PSoC4/BLE.c **** 
 209              		.loc 1 171 0
 210 0008 144B     		ldr	r3, .L18+4
 211 000a 1A70     		strb	r2, [r3]
 174:Generated_Source\PSoC4/BLE.c ****     #endif /* (CYBLE_GAP_ROLE_PERIPHERAL || CYBLE_GAP_ROLE_BROADCASTER)  */
 212              		.loc 1 174 0
 213 000c 144B     		ldr	r3, .L18+8
 214 000e 1A70     		strb	r2, [r3]
 177:Generated_Source\PSoC4/BLE.c ****     #endif /* (CYBLE_GAP_ROLE_CENTRAL || CYBLE_GAP_ROLE_OBSERVER) */
 215              		.loc 1 177 0
 216 0010 144B     		ldr	r3, .L18+12
 217 0012 1A70     		strb	r2, [r3]
 183:Generated_Source\PSoC4/BLE.c ****         cyBle_connectionParameters.scanWindow = cyBle_discoveryInfo.scanWindow;
 218              		.loc 1 183 0
 219 0014 1449     		ldr	r1, .L18+16
 220 0016 488C     		ldrh	r0, [r1, #34]
 221 0018 144B     		ldr	r3, .L18+20
 222 001a 1880     		strh	r0, [r3]
 184:Generated_Source\PSoC4/BLE.c ****         cyBle_connectionParameters.ownAddrType = cyBle_discoveryInfo.ownAddrType;
 223              		.loc 1 184 0
 224 001c 888C     		ldrh	r0, [r1, #36]
 225 001e 5880     		strh	r0, [r3, #2]
 185:Generated_Source\PSoC4/BLE.c ****         cyBle_connectionParameters.initiatorFilterPolicy = cyBle_discoveryInfo.scanFilterPolicy;
 226              		.loc 1 185 0
 227 0020 2031     		adds	r1, r1, #32
 228 0022 8879     		ldrb	r0, [r1, #6]
 229 0024 1873     		strb	r0, [r3, #12]
 186:Generated_Source\PSoC4/BLE.c ****         cyBle_connectionParameters.connIntvMin = CYBLE_GAPC_CONNECTION_INTERVAL_MIN;
 230              		.loc 1 186 0
 231 0026 C979     		ldrb	r1, [r1, #7]
 232 0028 1971     		strb	r1, [r3, #4]
ARM GAS  C:\Users\jupac\AppData\Local\Temp\ccOKFWor.s 			page 28


 187:Generated_Source\PSoC4/BLE.c ****         cyBle_connectionParameters.connIntvMax = CYBLE_GAPC_CONNECTION_INTERVAL_MAX;
 233              		.loc 1 187 0
 234 002a 0621     		movs	r1, #6
 235 002c D981     		strh	r1, [r3, #14]
 188:Generated_Source\PSoC4/BLE.c ****         cyBle_connectionParameters.connLatency = CYBLE_GAPC_CONNECTION_SLAVE_LATENCY;
 236              		.loc 1 188 0
 237 002e 2231     		adds	r1, r1, #34
 238 0030 1982     		strh	r1, [r3, #16]
 189:Generated_Source\PSoC4/BLE.c ****         cyBle_connectionParameters.supervisionTO = CYBLE_GAPC_CONNECTION_TIME_OUT;
 239              		.loc 1 189 0
 240 0032 0024     		movs	r4, #0
 241 0034 5A82     		strh	r2, [r3, #18]
 190:Generated_Source\PSoC4/BLE.c ****         cyBle_connectionParameters.minCeLength = 0x0000u;
 242              		.loc 1 190 0
 243 0036 FA21     		movs	r1, #250
 244 0038 8900     		lsls	r1, r1, #2
 245 003a 9982     		strh	r1, [r3, #20]
 191:Generated_Source\PSoC4/BLE.c ****         cyBle_connectionParameters.maxCeLength = 0xFFFFu;
 246              		.loc 1 191 0
 247 003c DA82     		strh	r2, [r3, #22]
 192:Generated_Source\PSoC4/BLE.c ****         
 248              		.loc 1 192 0
 249 003e 013A     		subs	r2, r2, #1
 250 0040 1A83     		strh	r2, [r3, #24]
 194:Generated_Source\PSoC4/BLE.c ****     #endif /* CYBLE_GAP_ROLE_CENTRAL */
 251              		.loc 1 194 0
 252 0042 1F32     		adds	r2, r2, #31
 253 0044 0A4B     		ldr	r3, .L18+24
 254 0046 1A80     		strh	r2, [r3]
 197:Generated_Source\PSoC4/BLE.c **** 
 255              		.loc 1 197 0
 256 0048 FFF7FEFF 		bl	CyBle_ServiceInit
 257              	.LVL29:
 200:Generated_Source\PSoC4/BLE.c ****         cyBle_peerBonding = CYBLE_GAP_BONDING_NONE;
 258              		.loc 1 200 0
 259 004c 094B     		ldr	r3, .L18+28
 260 004e 1C70     		strb	r4, [r3]
 201:Generated_Source\PSoC4/BLE.c ****     #endif  /* (CYBLE_BONDING_REQUIREMENT == CYBLE_BONDING_YES) */
 261              		.loc 1 201 0
 262 0050 094B     		ldr	r3, .L18+32
 263 0052 1C70     		strb	r4, [r3]
 204:Generated_Source\PSoC4/BLE.c **** 
 264              		.loc 1 204 0
 265              		@ sp needed
 266 0054 10BD     		pop	{r4, pc}
 267              	.L19:
 268 0056 C046     		.align	2
 269              	.L18:
 270 0058 00000000 		.word	cyBle_eventHandlerFlag
 271 005c 00000000 		.word	cyBle_busyStatus
 272 0060 00000000 		.word	cyBle_advertisingIntervalType
 273 0064 00000000 		.word	cyBle_scanningIntervalType
 274 0068 00000000 		.word	.LANCHOR0
 275 006c 00000000 		.word	cyBle_connectionParameters
 276 0070 00000000 		.word	cyBle_connectingTimeout
 277 0074 00000000 		.word	cyBle_pendingFlashWrite
 278 0078 00000000 		.word	cyBle_peerBonding
ARM GAS  C:\Users\jupac\AppData\Local\Temp\ccOKFWor.s 			page 29


 279              		.cfi_endproc
 280              	.LFE2:
 281              		.size	CyBle_Init, .-CyBle_Init
 282              		.section	.text.CyBle_Start,"ax",%progbits
 283              		.align	2
 284              		.global	CyBle_Start
 285              		.code	16
 286              		.thumb_func
 287              		.type	CyBle_Start, %function
 288              	CyBle_Start:
 289              	.LFB4:
 428:Generated_Source\PSoC4/BLE.c ****     CYBLE_API_RESULT_T apiResult = CYBLE_ERROR_OK;
 290              		.loc 1 428 0
 291              		.cfi_startproc
 292              		@ args = 0, pretend = 0, frame = 48
 293              		@ frame_needed = 0, uses_anonymous_args = 0
 294              	.LVL30:
 295 0000 30B5     		push	{r4, r5, lr}
 296              		.cfi_def_cfa_offset 12
 297              		.cfi_offset 4, -12
 298              		.cfi_offset 5, -8
 299              		.cfi_offset 14, -4
 300 0002 91B0     		sub	sp, sp, #68
 301              		.cfi_def_cfa_offset 80
 302 0004 0400     		movs	r4, r0
 303              	.LVL31:
 433:Generated_Source\PSoC4/BLE.c ****     {
 304              		.loc 1 433 0
 305 0006 1422     		movs	r2, #20
 306 0008 2349     		ldr	r1, .L24
 307 000a 0BA8     		add	r0, sp, #44
 308              	.LVL32:
 309 000c FFF7FEFF 		bl	memcpy
 310              	.LVL33:
 445:Generated_Source\PSoC4/BLE.c ****     {
 311              		.loc 1 445 0
 312 0010 2023     		movs	r3, #32
 313 0012 224A     		ldr	r2, .L24+4
 314 0014 D35C     		ldrb	r3, [r2, r3]
 315 0016 002B     		cmp	r3, #0
 316 0018 05D1     		bne	.L21
 447:Generated_Source\PSoC4/BLE.c ****         cyBle_initVar = 1u;
 317              		.loc 1 447 0
 318 001a FFF7FEFF 		bl	CyBle_Init
 319              	.LVL34:
 448:Generated_Source\PSoC4/BLE.c ****     }
 320              		.loc 1 448 0
 321 001e 0121     		movs	r1, #1
 322 0020 2023     		movs	r3, #32
 323 0022 1E4A     		ldr	r2, .L24+4
 324 0024 D154     		strb	r1, [r2, r3]
 325              	.L21:
 451:Generated_Source\PSoC4/BLE.c ****     {
 326              		.loc 1 451 0
 327 0026 002C     		cmp	r4, #0
 328 0028 32D0     		beq	.L23
 453:Generated_Source\PSoC4/BLE.c ****         
ARM GAS  C:\Users\jupac\AppData\Local\Temp\ccOKFWor.s 			page 30


 329              		.loc 1 453 0
 330 002a 1D4B     		ldr	r3, .L24+8
 331 002c 1C60     		str	r4, [r3]
 332              	.LBB2:
 472:Generated_Source\PSoC4/BLE.c ****             stackConfig.dleConfig = &dleConfigParams;
 333              		.loc 1 472 0
 334 002e 08AC     		add	r4, sp, #32
 335              	.LVL35:
 336 0030 05AD     		add	r5, sp, #20
 337 0032 0995     		str	r5, [sp, #36]
 473:Generated_Source\PSoC4/BLE.c ****             
 338              		.loc 1 473 0
 339 0034 06AB     		add	r3, sp, #24
 340 0036 0893     		str	r3, [sp, #32]
 476:Generated_Source\PSoC4/BLE.c ****                                        CYBLE_SECURE_CONN_FEATURE;
 341              		.loc 1 476 0
 342 0038 0322     		movs	r2, #3
 343 003a 2281     		strh	r2, [r4, #8]
 480:Generated_Source\PSoC4/BLE.c ****             dleConfigParams.dleMaxRxCapability = CYBLE_LL_MAX_RX_PAYLOAD_SIZE;
 344              		.loc 1 480 0
 345 003c 1A32     		adds	r2, r2, #26
 346 003e 1A80     		strh	r2, [r3]
 481:Generated_Source\PSoC4/BLE.c ****             dleConfigParams.dleNumTxBuffer = CYBLE_LL_DEFAULT_NUM_ACL_TX_PACKETS;
 347              		.loc 1 481 0
 348 0040 5A80     		strh	r2, [r3, #2]
 482:Generated_Source\PSoC4/BLE.c ****         #if(CYBLE_DLE_FEATURE_ENABLED)
 349              		.loc 1 482 0
 350 0042 193A     		subs	r2, r2, #25
 351 0044 1A71     		strb	r2, [r3, #4]
 484:Generated_Source\PSoC4/BLE.c ****         #endif /* CYBLE_DLE_FEATURE_ENABLED */
 352              		.loc 1 484 0
 353 0046 FFF7FEFF 		bl	CyBle_EnableDleFeature
 354              	.LVL36:
 488:Generated_Source\PSoC4/BLE.c ****         #if(CYBLE_LL_PRIVACY_FEATURE_ENABLED)
 355              		.loc 1 488 0
 356 004a 0823     		movs	r3, #8
 357 004c 2B70     		strb	r3, [r5]
 490:Generated_Source\PSoC4/BLE.c ****         #endif /* CYBLE_LL_PRIVACY_FEATURE_ENABLED */
 358              		.loc 1 490 0
 359 004e FFF7FEFF 		bl	CyBle_EnablePrivacyFeature
 360              	.LVL37:
 493:Generated_Source\PSoC4/BLE.c ****             }
 361              		.loc 1 493 0
 362 0052 1621     		movs	r1, #22
 363 0054 6944     		add	r1, r1, sp
 364 0056 2000     		movs	r0, r4
 365 0058 FFF7FEFF 		bl	CyBle_StackSetFeatureConfig
 366              	.LVL38:
 367              	.LBE2:
 496:Generated_Source\PSoC4/BLE.c ****         {
 368              		.loc 1 496 0
 369 005c 0028     		cmp	r0, #0
 370 005e 18D1     		bne	.L22
 501:Generated_Source\PSoC4/BLE.c ****                     CYBLE_STACK_RAM_SIZE - CYBLE_GATT_PREPARE_WRITE_BUFF_LEN, cyBle_stackDataBuff, 
 371              		.loc 1 501 0
 372 0060 104B     		ldr	r3, .L24+12
 373 0062 0293     		str	r3, [sp, #8]
ARM GAS  C:\Users\jupac\AppData\Local\Temp\ccOKFWor.s 			page 31


 374 0064 104B     		ldr	r3, .L24+16
 375 0066 0193     		str	r3, [sp, #4]
 376 0068 0523     		movs	r3, #5
 377 006a 0093     		str	r3, [sp]
 378 006c 0BAB     		add	r3, sp, #44
 379 006e DF22     		movs	r2, #223
 380 0070 1201     		lsls	r2, r2, #4
 381 0072 0E49     		ldr	r1, .L24+20
 382 0074 0E48     		ldr	r0, .L24+24
 383              	.LVL39:
 384 0076 FFF7FEFF 		bl	CyBle_StackInit
 385              	.LVL40:
 525:Generated_Source\PSoC4/BLE.c ****             {
 386              		.loc 1 525 0
 387 007a 0028     		cmp	r0, #0
 388 007c 09D1     		bne	.L22
 527:Generated_Source\PSoC4/BLE.c ****                 
 389              		.loc 1 527 0
 390 007e 0122     		movs	r2, #1
 391 0080 0C4B     		ldr	r3, .L24+28
 392 0082 1A70     		strb	r2, [r3]
 534:Generated_Source\PSoC4/BLE.c ****             #endif /* CYBLE_GATT_ROLE_SERVER */
 393              		.loc 1 534 0
 394 0084 0932     		adds	r2, r2, #9
 395 0086 1221     		movs	r1, #18
 396 0088 0B48     		ldr	r0, .L24+32
 397              	.LVL41:
 398 008a FFF7FEFF 		bl	CyBle_GattsDbRegister
 399              	.LVL42:
 400 008e 00E0     		b	.L22
 401              	.LVL43:
 402              	.L23:
 541:Generated_Source\PSoC4/BLE.c ****     }
 403              		.loc 1 541 0
 404 0090 0120     		movs	r0, #1
 405              	.LVL44:
 406              	.L22:
 545:Generated_Source\PSoC4/BLE.c **** 
 407              		.loc 1 545 0
 408 0092 11B0     		add	sp, sp, #68
 409              		@ sp needed
 410 0094 30BD     		pop	{r4, r5, pc}
 411              	.L25:
 412 0096 C046     		.align	2
 413              	.L24:
 414 0098 00000000 		.word	.LANCHOR2
 415 009c 00000000 		.word	.LANCHOR1
 416 00a0 00000000 		.word	CyBle_ApplCallback
 417 00a4 79020000 		.word	633
 418 00a8 00000000 		.word	cyBle_flashStorage
 419 00ac 00000000 		.word	.LANCHOR3
 420 00b0 00000000 		.word	CyBle_EventHandler
 421 00b4 00000000 		.word	cyBle_state
 422 00b8 00000000 		.word	cyBle_gattDB
 423              		.cfi_endproc
 424              	.LFE4:
 425              		.size	CyBle_Start, .-CyBle_Start
ARM GAS  C:\Users\jupac\AppData\Local\Temp\ccOKFWor.s 			page 32


 426              		.section	.text.CyBle_Stop,"ax",%progbits
 427              		.align	2
 428              		.global	CyBle_Stop
 429              		.code	16
 430              		.thumb_func
 431              		.type	CyBle_Stop, %function
 432              	CyBle_Stop:
 433              	.LFB5:
 561:Generated_Source\PSoC4/BLE.c ****     CyBle_Shutdown();                         /* Stop all ongoing activities */
 434              		.loc 1 561 0
 435              		.cfi_startproc
 436              		@ args = 0, pretend = 0, frame = 0
 437              		@ frame_needed = 0, uses_anonymous_args = 0
 438 0000 10B5     		push	{r4, lr}
 439              		.cfi_def_cfa_offset 8
 440              		.cfi_offset 4, -8
 441              		.cfi_offset 14, -4
 562:Generated_Source\PSoC4/BLE.c ****     CyBle_SetState(CYBLE_STATE_STOPPED);
 442              		.loc 1 562 0
 443 0002 FFF7FEFF 		bl	CyBle_Shutdown
 444              	.LVL45:
 563:Generated_Source\PSoC4/BLE.c ****     #if(CYBLE_SHARING_MODE_EXPORT)
 445              		.loc 1 563 0
 446 0006 0022     		movs	r2, #0
 447 0008 014B     		ldr	r3, .L27
 448 000a 1A70     		strb	r2, [r3]
 570:Generated_Source\PSoC4/BLE.c **** 
 449              		.loc 1 570 0
 450              		@ sp needed
 451 000c 10BD     		pop	{r4, pc}
 452              	.L28:
 453 000e C046     		.align	2
 454              	.L27:
 455 0010 00000000 		.word	cyBle_state
 456              		.cfi_endproc
 457              	.LFE5:
 458              		.size	CyBle_Stop, .-CyBle_Stop
 459              		.section	.text.CyBle_StoreBondingData,"ax",%progbits
 460              		.align	2
 461              		.global	CyBle_StoreBondingData
 462              		.code	16
 463              		.thumb_func
 464              		.type	CyBle_StoreBondingData, %function
 465              	CyBle_StoreBondingData:
 466              	.LFB6:
 617:Generated_Source\PSoC4/BLE.c ****     CYBLE_API_RESULT_T apiResult = CYBLE_ERROR_OK;
 467              		.loc 1 617 0
 468              		.cfi_startproc
 469              		@ args = 0, pretend = 0, frame = 16
 470              		@ frame_needed = 0, uses_anonymous_args = 0
 471              	.LVL46:
 472 0000 10B5     		push	{r4, lr}
 473              		.cfi_def_cfa_offset 8
 474              		.cfi_offset 4, -8
 475              		.cfi_offset 14, -4
 476 0002 84B0     		sub	sp, sp, #16
 477              		.cfi_def_cfa_offset 24
ARM GAS  C:\Users\jupac\AppData\Local\Temp\ccOKFWor.s 			page 33


 478 0004 0400     		movs	r4, r0
 479              	.LVL47:
 621:Generated_Source\PSoC4/BLE.c ****     {
 480              		.loc 1 621 0
 481 0006 344B     		ldr	r3, .L40
 482 0008 1B78     		ldrb	r3, [r3]
 483 000a DB07     		lsls	r3, r3, #31
 484 000c 0BD5     		bpl	.L38
 623:Generated_Source\PSoC4/BLE.c ****         if(apiResult == CYBLE_ERROR_OK)
 485              		.loc 1 623 0
 486 000e FFF7FEFF 		bl	CyBle_StoreStackData
 487              	.LVL48:
 624:Generated_Source\PSoC4/BLE.c ****         {
 488              		.loc 1 624 0
 489 0012 0028     		cmp	r0, #0
 490 0014 0AD1     		bne	.L30
 626:Generated_Source\PSoC4/BLE.c ****             /* Change apiResult if there are more pending data to store */
 491              		.loc 1 626 0
 492 0016 304A     		ldr	r2, .L40
 493 0018 1378     		ldrb	r3, [r2]
 494 001a 0121     		movs	r1, #1
 495 001c 8B43     		bics	r3, r1
 496 001e 1370     		strb	r3, [r2]
 628:Generated_Source\PSoC4/BLE.c ****             {
 497              		.loc 1 628 0
 498 0020 9B07     		lsls	r3, r3, #30
 499 0022 02D4     		bmi	.L39
 500 0024 02E0     		b	.L30
 501              	.LVL49:
 502              	.L38:
 618:Generated_Source\PSoC4/BLE.c ****     
 503              		.loc 1 618 0
 504 0026 0020     		movs	r0, #0
 505              	.LVL50:
 506 0028 00E0     		b	.L30
 507              	.LVL51:
 508              	.L39:
 630:Generated_Source\PSoC4/BLE.c ****             }
 509              		.loc 1 630 0
 510 002a 2820     		movs	r0, #40
 511              	.LVL52:
 512              	.L30:
 636:Generated_Source\PSoC4/BLE.c ****         ((cyBle_pendingFlashWrite & CYBLE_PENDING_CCCD_FLASH_WRITE_BIT) != 0u) &&
 513              		.loc 1 636 0
 514 002c 0028     		cmp	r0, #0
 515 002e 01D0     		beq	.L31
 636:Generated_Source\PSoC4/BLE.c ****         ((cyBle_pendingFlashWrite & CYBLE_PENDING_CCCD_FLASH_WRITE_BIT) != 0u) &&
 516              		.loc 1 636 0 is_stmt 0 discriminator 2
 517 0030 002C     		cmp	r4, #0
 518 0032 19D0     		beq	.L32
 519              	.L31:
 637:Generated_Source\PSoC4/BLE.c ****         (cyBle_connHandle.bdHandle <= CYBLE_GAP_MAX_BONDED_DEVICE))
 520              		.loc 1 637 0 is_stmt 1 discriminator 3
 521 0034 284B     		ldr	r3, .L40
 522 0036 1B78     		ldrb	r3, [r3]
 636:Generated_Source\PSoC4/BLE.c ****         ((cyBle_pendingFlashWrite & CYBLE_PENDING_CCCD_FLASH_WRITE_BIT) != 0u) &&
 523              		.loc 1 636 0 discriminator 3
ARM GAS  C:\Users\jupac\AppData\Local\Temp\ccOKFWor.s 			page 34


 524 0038 9B07     		lsls	r3, r3, #30
 525 003a 15D5     		bpl	.L32
 638:Generated_Source\PSoC4/BLE.c ****     {
 526              		.loc 1 638 0
 527 003c 274B     		ldr	r3, .L40+4
 528 003e 1B78     		ldrb	r3, [r3]
 637:Generated_Source\PSoC4/BLE.c ****         (cyBle_connHandle.bdHandle <= CYBLE_GAP_MAX_BONDED_DEVICE))
 529              		.loc 1 637 0
 530 0040 042B     		cmp	r3, #4
 531 0042 11D8     		bhi	.L32
 640:Generated_Source\PSoC4/BLE.c ****                         cyBle_connHandle.bdHandle], CYBLE_GATT_DB_CCCD_COUNT, isForceWrite);
 532              		.loc 1 640 0
 533 0044 3D33     		adds	r3, r3, #61
 534 0046 FF33     		adds	r3, r3, #255
 535 0048 5B00     		lsls	r3, r3, #1
 536 004a 2549     		ldr	r1, .L40+8
 537 004c 5B18     		adds	r3, r3, r1
 538 004e 591C     		adds	r1, r3, #1
 539 0050 2300     		movs	r3, r4
 540 0052 0222     		movs	r2, #2
 541 0054 2348     		ldr	r0, .L40+12
 542              	.LVL53:
 543 0056 FFF7FEFF 		bl	CyBle_StoreAppData
 544              	.LVL54:
 642:Generated_Source\PSoC4/BLE.c ****         {
 545              		.loc 1 642 0
 546 005a 0028     		cmp	r0, #0
 547 005c 04D1     		bne	.L32
 644:Generated_Source\PSoC4/BLE.c ****         }
 548              		.loc 1 644 0
 549 005e 1E4A     		ldr	r2, .L40
 550 0060 1378     		ldrb	r3, [r2]
 551 0062 0221     		movs	r1, #2
 552 0064 8B43     		bics	r3, r1
 553 0066 1370     		strb	r3, [r2]
 554              	.LVL55:
 555              	.L32:
 648:Generated_Source\PSoC4/BLE.c ****         ((cyBle_pendingFlashWrite & CYBLE_PENDING_CCCD_FLASH_CLEAR_MASK) != 0u) )
 556              		.loc 1 648 0
 557 0068 0028     		cmp	r0, #0
 558 006a 01D0     		beq	.L33
 648:Generated_Source\PSoC4/BLE.c ****         ((cyBle_pendingFlashWrite & CYBLE_PENDING_CCCD_FLASH_CLEAR_MASK) != 0u) )
 559              		.loc 1 648 0 is_stmt 0 discriminator 2
 560 006c 002C     		cmp	r4, #0
 561 006e 30D0     		beq	.L34
 562              	.L33:
 649:Generated_Source\PSoC4/BLE.c ****     {
 563              		.loc 1 649 0 is_stmt 1 discriminator 3
 564 0070 194B     		ldr	r3, .L40
 565 0072 1B78     		ldrb	r3, [r3]
 648:Generated_Source\PSoC4/BLE.c ****         ((cyBle_pendingFlashWrite & CYBLE_PENDING_CCCD_FLASH_CLEAR_MASK) != 0u) )
 566              		.loc 1 648 0 discriminator 3
 567 0074 0C22     		movs	r2, #12
 568 0076 1A42     		tst	r2, r3
 569 0078 2BD0     		beq	.L34
 651:Generated_Source\PSoC4/BLE.c ****         {
 570              		.loc 1 651 0
ARM GAS  C:\Users\jupac\AppData\Local\Temp\ccOKFWor.s 			page 35


 571 007a 1B07     		lsls	r3, r3, #28
 572 007c 12D5     		bpl	.L35
 573              	.LBB3:
 656:Generated_Source\PSoC4/BLE.c **** 
 574              		.loc 1 656 0
 575 007e 023A     		subs	r2, r2, #2
 576 0080 0021     		movs	r1, #0
 577 0082 01A8     		add	r0, sp, #4
 578              	.LVL56:
 579 0084 FFF7FEFF 		bl	memset
 580              	.LVL57:
 658:Generated_Source\PSoC4/BLE.c ****                 (const uint8 *)cyBle_flashStorage.attValuesCCCDFlashMemory, sizeof(defaultValuesCCC
 581              		.loc 1 658 0
 582 0088 2300     		movs	r3, r4
 583 008a 0A22     		movs	r2, #10
 584 008c 1649     		ldr	r1, .L40+16
 585 008e 01A8     		add	r0, sp, #4
 586 0090 FFF7FEFF 		bl	CyBle_StoreAppData
 587              	.LVL58:
 660:Generated_Source\PSoC4/BLE.c ****             {
 588              		.loc 1 660 0
 589 0094 0028     		cmp	r0, #0
 590 0096 1CD1     		bne	.L34
 662:Generated_Source\PSoC4/BLE.c ****             }
 591              		.loc 1 662 0
 592 0098 0F4A     		ldr	r2, .L40
 593 009a 1378     		ldrb	r3, [r2]
 594 009c 0821     		movs	r1, #8
 595 009e 8B43     		bics	r3, r1
 596 00a0 1370     		strb	r3, [r2]
 597 00a2 16E0     		b	.L34
 598              	.L35:
 599              	.LBE3:
 600              	.LBB4:
 667:Generated_Source\PSoC4/BLE.c ****             
 601              		.loc 1 667 0
 602 00a4 01A8     		add	r0, sp, #4
 603              	.LVL59:
 604 00a6 0023     		movs	r3, #0
 605 00a8 0380     		strh	r3, [r0]
 669:Generated_Source\PSoC4/BLE.c ****                                     cyBle_pendingFlashClearCccdHandle], CYBLE_GATT_DB_CCCD_COUNT, i
 606              		.loc 1 669 0
 607 00aa 2133     		adds	r3, r3, #33
 608 00ac 0F4A     		ldr	r2, .L40+20
 609 00ae D15C     		ldrb	r1, [r2, r3]
 610 00b0 3D31     		adds	r1, r1, #61
 611 00b2 FF31     		adds	r1, r1, #255
 612 00b4 4900     		lsls	r1, r1, #1
 613 00b6 0A4B     		ldr	r3, .L40+8
 614 00b8 C918     		adds	r1, r1, r3
 615 00ba 0131     		adds	r1, r1, #1
 616 00bc 2300     		movs	r3, r4
 617 00be 0222     		movs	r2, #2
 618 00c0 FFF7FEFF 		bl	CyBle_StoreAppData
 619              	.LVL60:
 671:Generated_Source\PSoC4/BLE.c ****             {
 620              		.loc 1 671 0
ARM GAS  C:\Users\jupac\AppData\Local\Temp\ccOKFWor.s 			page 36


 621 00c4 0028     		cmp	r0, #0
 622 00c6 04D1     		bne	.L34
 673:Generated_Source\PSoC4/BLE.c ****             }
 623              		.loc 1 673 0
 624 00c8 034A     		ldr	r2, .L40
 625 00ca 1378     		ldrb	r3, [r2]
 626 00cc 0421     		movs	r1, #4
 627 00ce 8B43     		bics	r3, r1
 628 00d0 1370     		strb	r3, [r2]
 629              	.LVL61:
 630              	.L34:
 631              	.LBE4:
 679:Generated_Source\PSoC4/BLE.c **** 
 632              		.loc 1 679 0
 633 00d2 04B0     		add	sp, sp, #16
 634              		@ sp needed
 635 00d4 10BD     		pop	{r4, pc}
 636              	.L41:
 637 00d6 C046     		.align	2
 638              	.L40:
 639 00d8 00000000 		.word	cyBle_pendingFlashWrite
 640 00dc 00000000 		.word	cyBle_connHandle
 641 00e0 00000000 		.word	cyBle_flashStorage
 642 00e4 00000000 		.word	cyBle_attValuesCCCD
 643 00e8 79020000 		.word	cyBle_flashStorage+633
 644 00ec 00000000 		.word	.LANCHOR1
 645              		.cfi_endproc
 646              	.LFE6:
 647              		.size	CyBle_StoreBondingData, .-CyBle_StoreBondingData
 648              		.section	.text.CyBle_GapRemoveBondedDevice,"ax",%progbits
 649              		.align	2
 650              		.global	CyBle_GapRemoveBondedDevice
 651              		.code	16
 652              		.thumb_func
 653              		.type	CyBle_GapRemoveBondedDevice, %function
 654              	CyBle_GapRemoveBondedDevice:
 655              	.LFB7:
 715:Generated_Source\PSoC4/BLE.c ****     CYBLE_API_RESULT_T apiResult = CYBLE_ERROR_OK;
 656              		.loc 1 715 0
 657              		.cfi_startproc
 658              		@ args = 0, pretend = 0, frame = 16
 659              		@ frame_needed = 0, uses_anonymous_args = 0
 660              	.LVL62:
 661 0000 30B5     		push	{r4, r5, lr}
 662              		.cfi_def_cfa_offset 12
 663              		.cfi_offset 4, -12
 664              		.cfi_offset 5, -8
 665              		.cfi_offset 14, -4
 666 0002 85B0     		sub	sp, sp, #20
 667              		.cfi_def_cfa_offset 32
 668 0004 0500     		movs	r5, r0
 669              	.LVL63:
 718:Generated_Source\PSoC4/BLE.c ****     {
 670              		.loc 1 718 0
 671 0006 174B     		ldr	r3, .L48
 672 0008 1C78     		ldrb	r4, [r3]
 673 000a 002C     		cmp	r4, #0
ARM GAS  C:\Users\jupac\AppData\Local\Temp\ccOKFWor.s 			page 37


 674 000c 27D1     		bne	.L47
 675              	.LBB5:
 724:Generated_Source\PSoC4/BLE.c **** 
 676              		.loc 1 724 0
 677 000e 0722     		movs	r2, #7
 678 0010 0021     		movs	r1, #0
 679 0012 02A8     		add	r0, sp, #8
 680              	.LVL64:
 681 0014 FFF7FEFF 		bl	memset
 682              	.LVL65:
 726:Generated_Source\PSoC4/BLE.c **** 	    {
 683              		.loc 1 726 0
 684 0018 0622     		movs	r2, #6
 685 001a 02A9     		add	r1, sp, #8
 686 001c 2800     		movs	r0, r5
 687 001e FFF7FEFF 		bl	memcmp
 688              	.LVL66:
 689 0022 0028     		cmp	r0, #0
 690 0024 04D1     		bne	.L44
 729:Generated_Source\PSoC4/BLE.c ****         }
 691              		.loc 1 729 0
 692 0026 0823     		movs	r3, #8
 693 0028 1C43     		orrs	r4, r3
 694 002a 0E4B     		ldr	r3, .L48
 695 002c 1C70     		strb	r4, [r3]
 696 002e 10E0     		b	.L45
 697              	.L44:
 734:Generated_Source\PSoC4/BLE.c ****             if(apiResult == CYBLE_ERROR_OK)
 698              		.loc 1 734 0
 699 0030 2900     		movs	r1, r5
 700 0032 6B46     		mov	r3, sp
 701 0034 D81D     		adds	r0, r3, #7
 702 0036 FFF7FEFF 		bl	CyBle_GapGetPeerBdHandle
 703              	.LVL67:
 735:Generated_Source\PSoC4/BLE.c ****             {
 704              		.loc 1 735 0
 705 003a 0028     		cmp	r0, #0
 706 003c 09D1     		bne	.L45
 738:Generated_Source\PSoC4/BLE.c ****                 cyBle_pendingFlashClearCccdHandle = bDevHandle;
 707              		.loc 1 738 0
 708 003e 094A     		ldr	r2, .L48
 709 0040 1178     		ldrb	r1, [r2]
 710 0042 0423     		movs	r3, #4
 711 0044 0B43     		orrs	r3, r1
 712 0046 1370     		strb	r3, [r2]
 739:Generated_Source\PSoC4/BLE.c ****             }
 713              		.loc 1 739 0
 714 0048 6B46     		mov	r3, sp
 715 004a D979     		ldrb	r1, [r3, #7]
 716 004c 2123     		movs	r3, #33
 717 004e 064A     		ldr	r2, .L48+4
 718 0050 D154     		strb	r1, [r2, r3]
 719              	.LVL68:
 720              	.L45:
 743:Generated_Source\PSoC4/BLE.c ****         {
 721              		.loc 1 743 0
 722 0052 0028     		cmp	r0, #0
ARM GAS  C:\Users\jupac\AppData\Local\Temp\ccOKFWor.s 			page 38


 723 0054 04D1     		bne	.L43
 745:Generated_Source\PSoC4/BLE.c ****         }
 724              		.loc 1 745 0
 725 0056 2800     		movs	r0, r5
 726              	.LVL69:
 727 0058 FFF7FEFF 		bl	CyBle_GapRemoveDeviceFromWhiteList
 728              	.LVL70:
 729 005c 00E0     		b	.L43
 730              	.LVL71:
 731              	.L47:
 732              	.LBE5:
 750:Generated_Source\PSoC4/BLE.c ****     }
 733              		.loc 1 750 0
 734 005e 0220     		movs	r0, #2
 735              	.LVL72:
 736              	.L43:
 754:Generated_Source\PSoC4/BLE.c **** 
 737              		.loc 1 754 0
 738 0060 05B0     		add	sp, sp, #20
 739              		@ sp needed
 740              	.LVL73:
 741 0062 30BD     		pop	{r4, r5, pc}
 742              	.L49:
 743              		.align	2
 744              	.L48:
 745 0064 00000000 		.word	cyBle_pendingFlashWrite
 746 0068 00000000 		.word	.LANCHOR1
 747              		.cfi_endproc
 748              	.LFE7:
 749              		.size	CyBle_GapRemoveBondedDevice, .-CyBle_GapRemoveBondedDevice
 750              		.section	.text.CyBle_GappStartAdvertisement,"ax",%progbits
 751              		.align	2
 752              		.global	CyBle_GappStartAdvertisement
 753              		.code	16
 754              		.thumb_func
 755              		.type	CyBle_GappStartAdvertisement, %function
 756              	CyBle_GappStartAdvertisement:
 757              	.LFB8:
 812:Generated_Source\PSoC4/BLE.c ****         CYBLE_API_RESULT_T apiResult;
 758              		.loc 1 812 0
 759              		.cfi_startproc
 760              		@ args = 0, pretend = 0, frame = 0
 761              		@ frame_needed = 0, uses_anonymous_args = 0
 762              	.LVL74:
 763 0000 10B5     		push	{r4, lr}
 764              		.cfi_def_cfa_offset 8
 765              		.cfi_offset 4, -8
 766              		.cfi_offset 14, -4
 815:Generated_Source\PSoC4/BLE.c ****         {
 767              		.loc 1 815 0
 768 0002 0228     		cmp	r0, #2
 769 0004 2ED8     		bhi	.L54
 819:Generated_Source\PSoC4/BLE.c ****         {   
 770              		.loc 1 819 0
 771 0006 1B4B     		ldr	r3, .L57
 772 0008 1B78     		ldrb	r3, [r3]
 773 000a 062B     		cmp	r3, #6
ARM GAS  C:\Users\jupac\AppData\Local\Temp\ccOKFWor.s 			page 39


 774 000c 2CD1     		bne	.L55
 819:Generated_Source\PSoC4/BLE.c ****         {   
 775              		.loc 1 819 0 is_stmt 0 discriminator 1
 776 000e 1A4B     		ldr	r3, .L57+4
 777 0010 1B78     		ldrb	r3, [r3]
 778 0012 5B07     		lsls	r3, r3, #29
 779 0014 2BD4     		bmi	.L56
 821:Generated_Source\PSoC4/BLE.c ****             {
 780              		.loc 1 821 0 is_stmt 1
 781 0016 0028     		cmp	r0, #0
 782 0018 08D1     		bne	.L52
 823:Generated_Source\PSoC4/BLE.c ****                 cyBle_discoveryModeInfo.advParam->advIntvMin = CYBLE_FAST_ADV_INT_MIN;
 783              		.loc 1 823 0
 784 001a 184B     		ldr	r3, .L57+8
 785 001c 0022     		movs	r2, #0
 786 001e 9A87     		strh	r2, [r3, #60]
 824:Generated_Source\PSoC4/BLE.c ****                 cyBle_discoveryModeInfo.advParam->advIntvMax = CYBLE_FAST_ADV_INT_MAX;
 787              		.loc 1 824 0
 788 0020 A032     		adds	r2, r2, #160
 789 0022 196B     		ldr	r1, [r3, #48]
 790 0024 0A80     		strh	r2, [r1]
 825:Generated_Source\PSoC4/BLE.c ****             }
 791              		.loc 1 825 0
 792 0026 1B6B     		ldr	r3, [r3, #48]
 793 0028 5A80     		strh	r2, [r3, #2]
 794 002a 0CE0     		b	.L53
 795              	.L52:
 827:Generated_Source\PSoC4/BLE.c ****             {
 796              		.loc 1 827 0
 797 002c 0128     		cmp	r0, #1
 798 002e 0AD1     		bne	.L53
 829:Generated_Source\PSoC4/BLE.c ****                 cyBle_discoveryModeInfo.advParam->advIntvMin = CYBLE_SLOW_ADV_INT_MIN;
 799              		.loc 1 829 0
 800 0030 124B     		ldr	r3, .L57+8
 801 0032 9622     		movs	r2, #150
 802 0034 9A87     		strh	r2, [r3, #60]
 830:Generated_Source\PSoC4/BLE.c ****                 cyBle_discoveryModeInfo.advParam->advIntvMax = CYBLE_SLOW_ADV_INT_MAX;
 803              		.loc 1 830 0
 804 0036 C822     		movs	r2, #200
 805 0038 D200     		lsls	r2, r2, #3
 806 003a 196B     		ldr	r1, [r3, #48]
 807 003c 0A80     		strh	r2, [r1]
 831:Generated_Source\PSoC4/BLE.c ****             }       
 808              		.loc 1 831 0
 809 003e 1B6B     		ldr	r3, [r3, #48]
 810 0040 8022     		movs	r2, #128
 811 0042 D201     		lsls	r2, r2, #7
 812 0044 5A80     		strh	r2, [r3, #2]
 813              	.L53:
 836:Generated_Source\PSoC4/BLE.c ****             apiResult = CyBle_GappEnterDiscoveryMode(&cyBle_discoveryModeInfo);
 814              		.loc 1 836 0
 815 0046 0E4B     		ldr	r3, .L57+12
 816 0048 1870     		strb	r0, [r3]
 837:Generated_Source\PSoC4/BLE.c ****         
 817              		.loc 1 837 0
 818 004a 0C48     		ldr	r0, .L57+8
 819              	.LVL75:
ARM GAS  C:\Users\jupac\AppData\Local\Temp\ccOKFWor.s 			page 40


 820 004c 2C30     		adds	r0, r0, #44
 821 004e FFF7FEFF 		bl	CyBle_GappEnterDiscoveryMode
 822              	.LVL76:
 839:Generated_Source\PSoC4/BLE.c ****             {
 823              		.loc 1 839 0
 824 0052 0028     		cmp	r0, #0
 825 0054 0DD1     		bne	.L51
 841:Generated_Source\PSoC4/BLE.c ****             }
 826              		.loc 1 841 0
 827 0056 084A     		ldr	r2, .L57+4
 828 0058 1178     		ldrb	r1, [r2]
 829 005a 0423     		movs	r3, #4
 830 005c 0B43     		orrs	r3, r1
 831 005e DBB2     		uxtb	r3, r3
 832 0060 1370     		strb	r3, [r2]
 833 0062 06E0     		b	.L51
 834              	.LVL77:
 835              	.L54:
 817:Generated_Source\PSoC4/BLE.c ****         }
 836              		.loc 1 817 0
 837 0064 0120     		movs	r0, #1
 838              	.LVL78:
 839 0066 04E0     		b	.L51
 840              	.LVL79:
 841              	.L55:
 846:Generated_Source\PSoC4/BLE.c ****         }
 842              		.loc 1 846 0
 843 0068 0420     		movs	r0, #4
 844              	.LVL80:
 845 006a FF30     		adds	r0, r0, #255
 846 006c 01E0     		b	.L51
 847              	.LVL81:
 848              	.L56:
 849 006e 0420     		movs	r0, #4
 850              	.LVL82:
 851 0070 FF30     		adds	r0, r0, #255
 852              	.L51:
 853              	.LVL83:
 850:Generated_Source\PSoC4/BLE.c **** 
 854              		.loc 1 850 0
 855              		@ sp needed
 856 0072 10BD     		pop	{r4, pc}
 857              	.L58:
 858              		.align	2
 859              	.L57:
 860 0074 00000000 		.word	cyBle_state
 861 0078 00000000 		.word	cyBle_eventHandlerFlag
 862 007c 00000000 		.word	.LANCHOR0
 863 0080 00000000 		.word	cyBle_advertisingIntervalType
 864              		.cfi_endproc
 865              	.LFE8:
 866              		.size	CyBle_GappStartAdvertisement, .-CyBle_GappStartAdvertisement
 867              		.section	.text.CyBle_GappStopAdvertisement,"ax",%progbits
 868              		.align	2
 869              		.global	CyBle_GappStopAdvertisement
 870              		.code	16
 871              		.thumb_func
ARM GAS  C:\Users\jupac\AppData\Local\Temp\ccOKFWor.s 			page 41


 872              		.type	CyBle_GappStopAdvertisement, %function
 873              	CyBle_GappStopAdvertisement:
 874              	.LFB9:
 873:Generated_Source\PSoC4/BLE.c ****         CyBle_GappExitDiscoveryMode();
 875              		.loc 1 873 0
 876              		.cfi_startproc
 877              		@ args = 0, pretend = 0, frame = 0
 878              		@ frame_needed = 0, uses_anonymous_args = 0
 879 0000 10B5     		push	{r4, lr}
 880              		.cfi_def_cfa_offset 8
 881              		.cfi_offset 4, -8
 882              		.cfi_offset 14, -4
 874:Generated_Source\PSoC4/BLE.c ****         cyBle_eventHandlerFlag |= CYBLE_STOP_FLAG;
 883              		.loc 1 874 0
 884 0002 FFF7FEFF 		bl	CyBle_GappExitDiscoveryMode
 885              	.LVL84:
 875:Generated_Source\PSoC4/BLE.c ****     }
 886              		.loc 1 875 0
 887 0006 034A     		ldr	r2, .L60
 888 0008 1178     		ldrb	r1, [r2]
 889 000a 0823     		movs	r3, #8
 890 000c 0B43     		orrs	r3, r1
 891 000e DBB2     		uxtb	r3, r3
 892 0010 1370     		strb	r3, [r2]
 876:Generated_Source\PSoC4/BLE.c ****     
 893              		.loc 1 876 0
 894              		@ sp needed
 895 0012 10BD     		pop	{r4, pc}
 896              	.L61:
 897              		.align	2
 898              	.L60:
 899 0014 00000000 		.word	cyBle_eventHandlerFlag
 900              		.cfi_endproc
 901              	.LFE9:
 902              		.size	CyBle_GappStopAdvertisement, .-CyBle_GappStopAdvertisement
 903              		.section	.text.CyBle_ChangeAdDeviceAddress,"ax",%progbits
 904              		.align	2
 905              		.global	CyBle_ChangeAdDeviceAddress
 906              		.code	16
 907              		.thumb_func
 908              		.type	CyBle_ChangeAdDeviceAddress, %function
 909              	CyBle_ChangeAdDeviceAddress:
 910              	.LFB10:
 895:Generated_Source\PSoC4/BLE.c ****         uint8 i;
 911              		.loc 1 895 0
 912              		.cfi_startproc
 913              		@ args = 0, pretend = 0, frame = 0
 914              		@ frame_needed = 0, uses_anonymous_args = 0
 915              		@ link register save eliminated.
 916              	.LVL85:
 922:Generated_Source\PSoC4/BLE.c ****   
 917              		.loc 1 922 0
 918              		@ sp needed
 919 0000 7047     		bx	lr
 920              		.cfi_endproc
 921              	.LFE10:
 922              		.size	CyBle_ChangeAdDeviceAddress, .-CyBle_ChangeAdDeviceAddress
ARM GAS  C:\Users\jupac\AppData\Local\Temp\ccOKFWor.s 			page 42


 923 0002 C046     		.section	.text.CyBle_GapcStartScan,"ax",%progbits
 924              		.align	2
 925              		.global	CyBle_GapcStartScan
 926              		.code	16
 927              		.thumb_func
 928              		.type	CyBle_GapcStartScan, %function
 929              	CyBle_GapcStartScan:
 930              	.LFB11:
1001:Generated_Source\PSoC4/BLE.c ****         CYBLE_API_RESULT_T apiResult;
 931              		.loc 1 1001 0
 932              		.cfi_startproc
 933              		@ args = 0, pretend = 0, frame = 0
 934              		@ frame_needed = 0, uses_anonymous_args = 0
 935              	.LVL86:
 936 0000 10B5     		push	{r4, lr}
 937              		.cfi_def_cfa_offset 8
 938              		.cfi_offset 4, -8
 939              		.cfi_offset 14, -4
1004:Generated_Source\PSoC4/BLE.c ****         {
 940              		.loc 1 1004 0
 941 0002 0228     		cmp	r0, #2
 942 0004 22D8     		bhi	.L67
1010:Generated_Source\PSoC4/BLE.c ****             {
 943              		.loc 1 1010 0
 944 0006 0028     		cmp	r0, #0
 945 0008 07D1     		bne	.L65
1012:Generated_Source\PSoC4/BLE.c ****                 cyBle_discoveryInfo.scanIntv = CYBLE_FAST_SCAN_INTERVAL;
 946              		.loc 1 1012 0
 947 000a 114B     		ldr	r3, .L68
 948 000c 0022     		movs	r2, #0
 949 000e 1A85     		strh	r2, [r3, #40]
1013:Generated_Source\PSoC4/BLE.c ****                 cyBle_discoveryInfo.scanWindow = CYBLE_FAST_SCAN_WINDOW;
 950              		.loc 1 1013 0
 951 0010 C822     		movs	r2, #200
 952 0012 9200     		lsls	r2, r2, #2
 953 0014 5A84     		strh	r2, [r3, #34]
1014:Generated_Source\PSoC4/BLE.c ****             }
 954              		.loc 1 1014 0
 955 0016 9A84     		strh	r2, [r3, #36]
 956 0018 09E0     		b	.L66
 957              	.L65:
1016:Generated_Source\PSoC4/BLE.c ****             {
 958              		.loc 1 1016 0
 959 001a 0128     		cmp	r0, #1
 960 001c 07D1     		bne	.L66
1018:Generated_Source\PSoC4/BLE.c ****                 cyBle_discoveryInfo.scanIntv = CYBLE_SLOW_SCAN_INTERVAL;
 961              		.loc 1 1018 0
 962 001e 0C4B     		ldr	r3, .L68
 963 0020 9622     		movs	r2, #150
 964 0022 1A85     		strh	r2, [r3, #40]
1019:Generated_Source\PSoC4/BLE.c ****                 cyBle_discoveryInfo.scanWindow = CYBLE_SLOW_SCAN_WINDOW;
 965              		.loc 1 1019 0
 966 0024 8022     		movs	r2, #128
 967 0026 1201     		lsls	r2, r2, #4
 968 0028 5A84     		strh	r2, [r3, #34]
1020:Generated_Source\PSoC4/BLE.c ****             }       
 969              		.loc 1 1020 0
ARM GAS  C:\Users\jupac\AppData\Local\Temp\ccOKFWor.s 			page 43


 970 002a F83A     		subs	r2, r2, #248
 971 002c 9A84     		strh	r2, [r3, #36]
 972              	.L66:
1026:Generated_Source\PSoC4/BLE.c ****             apiResult = CyBle_GapcStartDiscovery(&cyBle_discoveryInfo);
 973              		.loc 1 1026 0
 974 002e 094B     		ldr	r3, .L68+4
 975 0030 1870     		strb	r0, [r3]
1027:Generated_Source\PSoC4/BLE.c ****         
 976              		.loc 1 1027 0
 977 0032 0748     		ldr	r0, .L68
 978              	.LVL87:
 979 0034 2030     		adds	r0, r0, #32
 980 0036 FFF7FEFF 		bl	CyBle_GapcStartDiscovery
 981              	.LVL88:
1029:Generated_Source\PSoC4/BLE.c ****             {
 982              		.loc 1 1029 0
 983 003a 0028     		cmp	r0, #0
 984 003c 07D1     		bne	.L64
1031:Generated_Source\PSoC4/BLE.c ****             }
 985              		.loc 1 1031 0
 986 003e 064A     		ldr	r2, .L68+8
 987 0040 1178     		ldrb	r1, [r2]
 988 0042 0423     		movs	r3, #4
 989 0044 0B43     		orrs	r3, r1
 990 0046 DBB2     		uxtb	r3, r3
 991 0048 1370     		strb	r3, [r2]
 992 004a 00E0     		b	.L64
 993              	.LVL89:
 994              	.L67:
1006:Generated_Source\PSoC4/BLE.c ****         }
 995              		.loc 1 1006 0
 996 004c 0120     		movs	r0, #1
 997              	.LVL90:
 998              	.L64:
1036:Generated_Source\PSoC4/BLE.c ****     
 999              		.loc 1 1036 0
 1000              		@ sp needed
 1001 004e 10BD     		pop	{r4, pc}
 1002              	.L69:
 1003              		.align	2
 1004              	.L68:
 1005 0050 00000000 		.word	.LANCHOR0
 1006 0054 00000000 		.word	cyBle_scanningIntervalType
 1007 0058 00000000 		.word	cyBle_eventHandlerFlag
 1008              		.cfi_endproc
 1009              	.LFE11:
 1010              		.size	CyBle_GapcStartScan, .-CyBle_GapcStartScan
 1011              		.section	.text.CyBle_GapcStopScan,"ax",%progbits
 1012              		.align	2
 1013              		.global	CyBle_GapcStopScan
 1014              		.code	16
 1015              		.thumb_func
 1016              		.type	CyBle_GapcStopScan, %function
 1017              	CyBle_GapcStopScan:
 1018              	.LFB12:
1057:Generated_Source\PSoC4/BLE.c ****         CyBle_GapcStopDiscovery();
 1019              		.loc 1 1057 0
ARM GAS  C:\Users\jupac\AppData\Local\Temp\ccOKFWor.s 			page 44


 1020              		.cfi_startproc
 1021              		@ args = 0, pretend = 0, frame = 0
 1022              		@ frame_needed = 0, uses_anonymous_args = 0
 1023 0000 10B5     		push	{r4, lr}
 1024              		.cfi_def_cfa_offset 8
 1025              		.cfi_offset 4, -8
 1026              		.cfi_offset 14, -4
1058:Generated_Source\PSoC4/BLE.c ****         
 1027              		.loc 1 1058 0
 1028 0002 FFF7FEFF 		bl	CyBle_GapcStopDiscovery
 1029              	.LVL91:
1060:Generated_Source\PSoC4/BLE.c ****     }
 1030              		.loc 1 1060 0
 1031 0006 034A     		ldr	r2, .L71
 1032 0008 1178     		ldrb	r1, [r2]
 1033 000a 0823     		movs	r3, #8
 1034 000c 0B43     		orrs	r3, r1
 1035 000e DBB2     		uxtb	r3, r3
 1036 0010 1370     		strb	r3, [r2]
1061:Generated_Source\PSoC4/BLE.c **** 
 1037              		.loc 1 1061 0
 1038              		@ sp needed
 1039 0012 10BD     		pop	{r4, pc}
 1040              	.L72:
 1041              		.align	2
 1042              	.L71:
 1043 0014 00000000 		.word	cyBle_eventHandlerFlag
 1044              		.cfi_endproc
 1045              	.LFE12:
 1046              		.size	CyBle_GapcStopScan, .-CyBle_GapcStopScan
 1047              		.section	.text.CyBle_GapcConnectDevice,"ax",%progbits
 1048              		.align	2
 1049              		.global	CyBle_GapcConnectDevice
 1050              		.code	16
 1051              		.thumb_func
 1052              		.type	CyBle_GapcConnectDevice, %function
 1053              	CyBle_GapcConnectDevice:
 1054              	.LFB13:
1110:Generated_Source\PSoC4/BLE.c ****         CYBLE_API_RESULT_T apiResult;
 1055              		.loc 1 1110 0
 1056              		.cfi_startproc
 1057              		@ args = 0, pretend = 0, frame = 0
 1058              		@ frame_needed = 0, uses_anonymous_args = 0
 1059              	.LVL92:
 1060 0000 10B5     		push	{r4, lr}
 1061              		.cfi_def_cfa_offset 8
 1062              		.cfi_offset 4, -8
 1063              		.cfi_offset 14, -4
1114:Generated_Source\PSoC4/BLE.c ****         {
 1064              		.loc 1 1114 0
 1065 0002 134B     		ldr	r3, .L79
 1066 0004 1B78     		ldrb	r3, [r3]
 1067 0006 062B     		cmp	r3, #6
 1068 0008 1CD1     		bne	.L77
1118:Generated_Source\PSoC4/BLE.c ****         {
 1069              		.loc 1 1118 0
 1070 000a 0028     		cmp	r0, #0
ARM GAS  C:\Users\jupac\AppData\Local\Temp\ccOKFWor.s 			page 45


 1071 000c 1DD0     		beq	.L78
 1072 000e 0023     		movs	r3, #0
 1073 0010 05E0     		b	.L75
 1074              	.LVL93:
 1075              	.L76:
1126:Generated_Source\PSoC4/BLE.c ****             }
 1076              		.loc 1 1126 0 discriminator 3
 1077 0012 C15C     		ldrb	r1, [r0, r3]
 1078 0014 0F4A     		ldr	r2, .L79+4
 1079 0016 D218     		adds	r2, r2, r3
 1080 0018 5171     		strb	r1, [r2, #5]
1124:Generated_Source\PSoC4/BLE.c ****             {
 1081              		.loc 1 1124 0 discriminator 3
 1082 001a 0133     		adds	r3, r3, #1
 1083              	.LVL94:
 1084 001c DBB2     		uxtb	r3, r3
 1085              	.LVL95:
 1086              	.L75:
1124:Generated_Source\PSoC4/BLE.c ****             {
 1087              		.loc 1 1124 0 is_stmt 0 discriminator 1
 1088 001e 052B     		cmp	r3, #5
 1089 0020 F7D9     		bls	.L76
1128:Generated_Source\PSoC4/BLE.c ****             apiResult = CyBle_GapcInitConnection(&cyBle_connectionParameters);
 1090              		.loc 1 1128 0 is_stmt 1
 1091 0022 8379     		ldrb	r3, [r0, #6]
 1092              	.LVL96:
 1093 0024 0B48     		ldr	r0, .L79+4
 1094              	.LVL97:
 1095 0026 C372     		strb	r3, [r0, #11]
1129:Generated_Source\PSoC4/BLE.c ****             
 1096              		.loc 1 1129 0
 1097 0028 FFF7FEFF 		bl	CyBle_GapcInitConnection
 1098              	.LVL98:
 1099 002c 041E     		subs	r4, r0, #0
 1100              	.LVL99:
1131:Generated_Source\PSoC4/BLE.c ****             {
 1101              		.loc 1 1131 0
 1102 002e 0DD1     		bne	.L74
1133:Generated_Source\PSoC4/BLE.c ****                 if(cyBle_connectingTimeout != 0u)
 1103              		.loc 1 1133 0
 1104 0030 0522     		movs	r2, #5
 1105 0032 074B     		ldr	r3, .L79
 1106 0034 1A70     		strb	r2, [r3]
1134:Generated_Source\PSoC4/BLE.c ****                 {
 1107              		.loc 1 1134 0
 1108 0036 084B     		ldr	r3, .L79+8
 1109 0038 1888     		ldrh	r0, [r3]
 1110              	.LVL100:
 1111 003a 0028     		cmp	r0, #0
 1112 003c 06D0     		beq	.L74
1136:Generated_Source\PSoC4/BLE.c ****                 }
 1113              		.loc 1 1136 0
 1114 003e FFF7FEFF 		bl	CyBle_StartTimer
 1115              	.LVL101:
 1116 0042 03E0     		b	.L74
 1117              	.LVL102:
 1118              	.L77:
ARM GAS  C:\Users\jupac\AppData\Local\Temp\ccOKFWor.s 			page 46


1116:Generated_Source\PSoC4/BLE.c ****         }
 1119              		.loc 1 1116 0
 1120 0044 0424     		movs	r4, #4
 1121 0046 FF34     		adds	r4, r4, #255
 1122 0048 00E0     		b	.L74
 1123              	.L78:
1120:Generated_Source\PSoC4/BLE.c ****         }
 1124              		.loc 1 1120 0
 1125 004a 0124     		movs	r4, #1
 1126              	.LVL103:
 1127              	.L74:
1141:Generated_Source\PSoC4/BLE.c ****     
 1128              		.loc 1 1141 0
 1129 004c 2000     		movs	r0, r4
 1130              		@ sp needed
 1131              	.LVL104:
 1132 004e 10BD     		pop	{r4, pc}
 1133              	.L80:
 1134              		.align	2
 1135              	.L79:
 1136 0050 00000000 		.word	cyBle_state
 1137 0054 00000000 		.word	cyBle_connectionParameters
 1138 0058 00000000 		.word	cyBle_connectingTimeout
 1139              		.cfi_endproc
 1140              	.LFE13:
 1141              		.size	CyBle_GapcConnectDevice, .-CyBle_GapcConnectDevice
 1142              		.section	.text.CyBle_GapcCancelDeviceConnection,"ax",%progbits
 1143              		.align	2
 1144              		.global	CyBle_GapcCancelDeviceConnection
 1145              		.code	16
 1146              		.thumb_func
 1147              		.type	CyBle_GapcCancelDeviceConnection, %function
 1148              	CyBle_GapcCancelDeviceConnection:
 1149              	.LFB14:
1166:Generated_Source\PSoC4/BLE.c ****         CYBLE_API_RESULT_T apiResult;
 1150              		.loc 1 1166 0
 1151              		.cfi_startproc
 1152              		@ args = 0, pretend = 0, frame = 0
 1153              		@ frame_needed = 0, uses_anonymous_args = 0
 1154 0000 10B5     		push	{r4, lr}
 1155              		.cfi_def_cfa_offset 8
 1156              		.cfi_offset 4, -8
 1157              		.cfi_offset 14, -4
1169:Generated_Source\PSoC4/BLE.c ****         {
 1158              		.loc 1 1169 0
 1159 0002 0B4B     		ldr	r3, .L85
 1160 0004 1B78     		ldrb	r3, [r3]
 1161 0006 052B     		cmp	r3, #5
 1162 0008 0ED1     		bne	.L84
1175:Generated_Source\PSoC4/BLE.c ****             
 1163              		.loc 1 1175 0
 1164 000a FFF7FEFF 		bl	CyBle_GapcCancelConnection
 1165              	.LVL105:
 1166 000e 0400     		movs	r4, r0
 1167              	.LVL106:
1177:Generated_Source\PSoC4/BLE.c ****             {
 1168              		.loc 1 1177 0
ARM GAS  C:\Users\jupac\AppData\Local\Temp\ccOKFWor.s 			page 47


 1169 0010 084B     		ldr	r3, .L85+4
 1170 0012 1B88     		ldrh	r3, [r3]
 1171 0014 002B     		cmp	r3, #0
 1172 0016 01D0     		beq	.L83
1179:Generated_Source\PSoC4/BLE.c ****             }
 1173              		.loc 1 1179 0
 1174 0018 FFF7FEFF 		bl	CyBle_StopTimer
 1175              	.LVL107:
 1176              	.L83:
1182:Generated_Source\PSoC4/BLE.c ****             {
 1177              		.loc 1 1182 0
 1178 001c 002C     		cmp	r4, #0
 1179 001e 05D1     		bne	.L82
1184:Generated_Source\PSoC4/BLE.c ****             }
 1180              		.loc 1 1184 0
 1181 0020 0622     		movs	r2, #6
 1182 0022 034B     		ldr	r3, .L85
 1183 0024 1A70     		strb	r2, [r3]
 1184 0026 01E0     		b	.L82
 1185              	.LVL108:
 1186              	.L84:
1171:Generated_Source\PSoC4/BLE.c ****         }
 1187              		.loc 1 1171 0
 1188 0028 0424     		movs	r4, #4
 1189 002a FF34     		adds	r4, r4, #255
 1190              	.L82:
 1191              	.LVL109:
1188:Generated_Source\PSoC4/BLE.c **** 
 1192              		.loc 1 1188 0
 1193 002c 2000     		movs	r0, r4
 1194              		@ sp needed
 1195              	.LVL110:
 1196 002e 10BD     		pop	{r4, pc}
 1197              	.L86:
 1198              		.align	2
 1199              	.L85:
 1200 0030 00000000 		.word	cyBle_state
 1201 0034 00000000 		.word	cyBle_connectingTimeout
 1202              		.cfi_endproc
 1203              	.LFE14:
 1204              		.size	CyBle_GapcCancelDeviceConnection, .-CyBle_GapcCancelDeviceConnection
 1205              		.section	.text.CyBle_GapSetLocalName,"ax",%progbits
 1206              		.align	2
 1207              		.global	CyBle_GapSetLocalName
 1208              		.code	16
 1209              		.thumb_func
 1210              		.type	CyBle_GapSetLocalName, %function
 1211              	CyBle_GapSetLocalName:
 1212              	.LFB16:
1284:Generated_Source\PSoC4/BLE.c ****         
1285:Generated_Source\PSoC4/BLE.c **** #endif /* (CYBLE_GAP_ROLE_PERIPHERAL) */  
1286:Generated_Source\PSoC4/BLE.c ****     
1287:Generated_Source\PSoC4/BLE.c ****     
1288:Generated_Source\PSoC4/BLE.c ****     /******************************************************************************
1289:Generated_Source\PSoC4/BLE.c ****     * Function Name: CyBle_GapSetLocalName
1290:Generated_Source\PSoC4/BLE.c ****     ***************************************************************************//**
1291:Generated_Source\PSoC4/BLE.c ****     *  This function is used to set the local device name - a Characteristic of the 
ARM GAS  C:\Users\jupac\AppData\Local\Temp\ccOKFWor.s 			page 48


1292:Generated_Source\PSoC4/BLE.c ****     *  GAP Service. If the characteristic length entered in the component customizer
1293:Generated_Source\PSoC4/BLE.c ****     *  is shorter than the string specified by the "name" parameter, the local device
1294:Generated_Source\PSoC4/BLE.c ****     *  name will be cut to the length specified in the customizer.
1295:Generated_Source\PSoC4/BLE.c ****     * 
1296:Generated_Source\PSoC4/BLE.c ****     *  \param name: The local device name string. The name string to be written as
1297:Generated_Source\PSoC4/BLE.c ****     *              the local device name. It represents a UTF-8 encoded User
1298:Generated_Source\PSoC4/BLE.c ****     *              Friendly Descriptive Name for the device. The length of the local
1299:Generated_Source\PSoC4/BLE.c ****     *              device string is entered into the component customizer and it can
1300:Generated_Source\PSoC4/BLE.c ****     *              be set to a value from 0 to 248 bytes. If the name contained in
1301:Generated_Source\PSoC4/BLE.c ****     *              the parameter is shorter than the length from the customizer, the
1302:Generated_Source\PSoC4/BLE.c ****     *              end of the name is indicated by a NULL octet (0x00).
1303:Generated_Source\PSoC4/BLE.c ****     * 
1304:Generated_Source\PSoC4/BLE.c ****     * \return
1305:Generated_Source\PSoC4/BLE.c ****     *  CYBLE_API_RESULT_T : Return value indicates if the function succeeded or 
1306:Generated_Source\PSoC4/BLE.c ****     *  failed. Following are the possible error codes.
1307:Generated_Source\PSoC4/BLE.c ****     *
1308:Generated_Source\PSoC4/BLE.c ****     *   Errors codes                       | Description
1309:Generated_Source\PSoC4/BLE.c ****     *   ------------                       | -----------
1310:Generated_Source\PSoC4/BLE.c ****     *   CYBLE_ERROR_OK                     | Function completed successfully.
1311:Generated_Source\PSoC4/BLE.c ****     *   CYBLE_ERROR_INVALID_PARAMETER      | On specifying NULL as input parameter
1312:Generated_Source\PSoC4/BLE.c ****     *  
1313:Generated_Source\PSoC4/BLE.c ****     *******************************************************************************/
1314:Generated_Source\PSoC4/BLE.c ****     CYBLE_API_RESULT_T CyBle_GapSetLocalName(const char8 name[])
1315:Generated_Source\PSoC4/BLE.c ****     {
 1213              		.loc 1 1315 0
 1214              		.cfi_startproc
 1215              		@ args = 0, pretend = 0, frame = 0
 1216              		@ frame_needed = 0, uses_anonymous_args = 0
 1217              	.LVL111:
 1218 0000 70B5     		push	{r4, r5, r6, lr}
 1219              		.cfi_def_cfa_offset 16
 1220              		.cfi_offset 4, -16
 1221              		.cfi_offset 5, -12
 1222              		.cfi_offset 6, -8
 1223              		.cfi_offset 14, -4
 1224 0002 041E     		subs	r4, r0, #0
 1225              	.LVL112:
1316:Generated_Source\PSoC4/BLE.c ****         CYBLE_API_RESULT_T apiResult = CYBLE_ERROR_OK;
1317:Generated_Source\PSoC4/BLE.c ****         uint8 i;
1318:Generated_Source\PSoC4/BLE.c ****         char8 *ptr;
1319:Generated_Source\PSoC4/BLE.c ****         uint8 charLen;
1320:Generated_Source\PSoC4/BLE.c **** 
1321:Generated_Source\PSoC4/BLE.c ****         if(NULL != name)
 1226              		.loc 1 1321 0
 1227 0004 26D0     		beq	.L93
1322:Generated_Source\PSoC4/BLE.c ****         {
1323:Generated_Source\PSoC4/BLE.c ****             /* Get the pointer to the Device Name characteristic  */
1324:Generated_Source\PSoC4/BLE.c ****             ptr = (char8 *) CYBLE_GATT_DB_ATTR_GET_ATTR_GEN_PTR(cyBle_gaps.deviceNameCharHandle);
 1228              		.loc 1 1324 0
 1229 0006 144B     		ldr	r3, .L94
 1230 0008 5B88     		ldrh	r3, [r3, #2]
 1231 000a 013B     		subs	r3, r3, #1
 1232 000c 134D     		ldr	r5, .L94+4
 1233 000e 9A00     		lsls	r2, r3, #2
 1234 0010 D018     		adds	r0, r2, r3
 1235              	.LVL113:
 1236 0012 8100     		lsls	r1, r0, #2
ARM GAS  C:\Users\jupac\AppData\Local\Temp\ccOKFWor.s 			page 49


 1237 0014 6918     		adds	r1, r5, r1
 1238 0016 0969     		ldr	r1, [r1, #16]
 1239 0018 4868     		ldr	r0, [r1, #4]
 1240              	.LVL114:
1325:Generated_Source\PSoC4/BLE.c **** 
1326:Generated_Source\PSoC4/BLE.c ****             /* First need to get the maximum length of the characteristic data in the GATT
1327:Generated_Source\PSoC4/BLE.c ****                 database to make sure there is enough place for the data. The length
1328:Generated_Source\PSoC4/BLE.c ****                 can't be longer than 248, so only the LSB of 16 bit of length is to
1329:Generated_Source\PSoC4/BLE.c ****                 be used. */
1330:Generated_Source\PSoC4/BLE.c ****             charLen = (uint8)CYBLE_GATT_DB_ATTR_GET_ATTR_GEN_MAX_LEN(cyBle_gaps.deviceNameCharHandl
 1241              		.loc 1 1330 0
 1242 001a D318     		adds	r3, r2, r3
 1243 001c 9A00     		lsls	r2, r3, #2
 1244 001e AA18     		adds	r2, r5, r2
 1245 0020 117B     		ldrb	r1, [r2, #12]
 1246              	.LVL115:
1331:Generated_Source\PSoC4/BLE.c **** 
1332:Generated_Source\PSoC4/BLE.c ****             /* Copy name into characteristic */
1333:Generated_Source\PSoC4/BLE.c ****             for(i = 0u; ((i < charLen) && (CYBLE_NULL_CHARCTER != name[i])); i++)
 1247              		.loc 1 1333 0
 1248 0022 0023     		movs	r3, #0
 1249 0024 02E0     		b	.L89
 1250              	.LVL116:
 1251              	.L91:
1334:Generated_Source\PSoC4/BLE.c ****             {
1335:Generated_Source\PSoC4/BLE.c ****                 ptr[i] = name[i];
 1252              		.loc 1 1335 0 discriminator 4
 1253 0026 C254     		strb	r2, [r0, r3]
1333:Generated_Source\PSoC4/BLE.c ****             {
 1254              		.loc 1 1333 0 discriminator 4
 1255 0028 0133     		adds	r3, r3, #1
 1256              	.LVL117:
 1257 002a DBB2     		uxtb	r3, r3
 1258              	.LVL118:
 1259              	.L89:
1333:Generated_Source\PSoC4/BLE.c ****             {
 1260              		.loc 1 1333 0 is_stmt 0 discriminator 1
 1261 002c 8B42     		cmp	r3, r1
 1262 002e 02D2     		bcs	.L90
1333:Generated_Source\PSoC4/BLE.c ****             {
 1263              		.loc 1 1333 0 discriminator 3
 1264 0030 E25C     		ldrb	r2, [r4, r3]
 1265 0032 002A     		cmp	r2, #0
 1266 0034 F7D1     		bne	.L91
 1267              	.L90:
1336:Generated_Source\PSoC4/BLE.c ****             }
1337:Generated_Source\PSoC4/BLE.c **** 
1338:Generated_Source\PSoC4/BLE.c ****             if(i < charLen)
 1268              		.loc 1 1338 0 is_stmt 1
 1269 0036 8B42     		cmp	r3, r1
 1270 0038 02D2     		bcs	.L92
1339:Generated_Source\PSoC4/BLE.c ****             {
1340:Generated_Source\PSoC4/BLE.c ****                 /* Terminate string */
1341:Generated_Source\PSoC4/BLE.c ****                 ptr[i] = CYBLE_NULL_CHARCTER;
 1271              		.loc 1 1341 0
 1272 003a C318     		adds	r3, r0, r3
 1273              	.LVL119:
ARM GAS  C:\Users\jupac\AppData\Local\Temp\ccOKFWor.s 			page 50


 1274 003c 0022     		movs	r2, #0
 1275 003e 1A70     		strb	r2, [r3]
 1276              	.L92:
1342:Generated_Source\PSoC4/BLE.c ****             }
1343:Generated_Source\PSoC4/BLE.c ****             
1344:Generated_Source\PSoC4/BLE.c ****             /* Set new actual length */
1345:Generated_Source\PSoC4/BLE.c ****             
1346:Generated_Source\PSoC4/BLE.c ****             /* Update device name in advertising and scan response structure */
1347:Generated_Source\PSoC4/BLE.c ****             #if(CYBLE_GAP_ROLE_PERIPHERAL)
1348:Generated_Source\PSoC4/BLE.c ****                 CyBle_ChangeAdLocalName(name, 0u);
 1277              		.loc 1 1348 0
 1278 0040 0021     		movs	r1, #0
 1279              	.LVL120:
 1280 0042 2000     		movs	r0, r4
 1281              	.LVL121:
 1282 0044 FFF7FEFF 		bl	CyBle_ChangeAdLocalName
 1283              	.LVL122:
1349:Generated_Source\PSoC4/BLE.c ****                 CyBle_ChangeAdLocalName(name, 1u);
 1284              		.loc 1 1349 0
 1285 0048 0121     		movs	r1, #1
 1286 004a 2000     		movs	r0, r4
 1287 004c FFF7FEFF 		bl	CyBle_ChangeAdLocalName
 1288              	.LVL123:
1316:Generated_Source\PSoC4/BLE.c ****         uint8 i;
 1289              		.loc 1 1316 0
 1290 0050 0020     		movs	r0, #0
 1291 0052 00E0     		b	.L88
 1292              	.LVL124:
 1293              	.L93:
1350:Generated_Source\PSoC4/BLE.c ****             #endif /* (CYBLE_GAP_ROLE_PERIPHERAL) */
1351:Generated_Source\PSoC4/BLE.c ****         }
1352:Generated_Source\PSoC4/BLE.c ****         else
1353:Generated_Source\PSoC4/BLE.c ****         {
1354:Generated_Source\PSoC4/BLE.c ****             apiResult = CYBLE_ERROR_INVALID_PARAMETER;
 1294              		.loc 1 1354 0
 1295 0054 0120     		movs	r0, #1
 1296              	.LVL125:
 1297              	.L88:
1355:Generated_Source\PSoC4/BLE.c ****         }
1356:Generated_Source\PSoC4/BLE.c ****         
1357:Generated_Source\PSoC4/BLE.c ****         return(apiResult);
1358:Generated_Source\PSoC4/BLE.c ****     }
 1298              		.loc 1 1358 0
 1299              		@ sp needed
 1300              	.LVL126:
 1301 0056 70BD     		pop	{r4, r5, r6, pc}
 1302              	.L95:
 1303              		.align	2
 1304              	.L94:
 1305 0058 00000000 		.word	cyBle_gaps
 1306 005c 00000000 		.word	cyBle_gattDB
 1307              		.cfi_endproc
 1308              	.LFE16:
 1309              		.size	CyBle_GapSetLocalName, .-CyBle_GapSetLocalName
 1310              		.section	.text.CyBle_GapGetLocalName,"ax",%progbits
 1311              		.align	2
 1312              		.global	CyBle_GapGetLocalName
ARM GAS  C:\Users\jupac\AppData\Local\Temp\ccOKFWor.s 			page 51


 1313              		.code	16
 1314              		.thumb_func
 1315              		.type	CyBle_GapGetLocalName, %function
 1316              	CyBle_GapGetLocalName:
 1317              	.LFB17:
1359:Generated_Source\PSoC4/BLE.c **** 
1360:Generated_Source\PSoC4/BLE.c **** 
1361:Generated_Source\PSoC4/BLE.c ****     /******************************************************************************
1362:Generated_Source\PSoC4/BLE.c ****     * Function Name: CyBle_GapGetLocalName
1363:Generated_Source\PSoC4/BLE.c ****     ***************************************************************************//**
1364:Generated_Source\PSoC4/BLE.c ****     *  
1365:Generated_Source\PSoC4/BLE.c ****     *  This function is used to read the local device name - a Characteristic of the 
1366:Generated_Source\PSoC4/BLE.c ****     *  GAP Service.
1367:Generated_Source\PSoC4/BLE.c ****     * 
1368:Generated_Source\PSoC4/BLE.c ****     * \param name: The local device name string. Used to read the local name to the
1369:Generated_Source\PSoC4/BLE.c ****     *             given string array. It represents a UTF-8 encoded User Friendly 
1370:Generated_Source\PSoC4/BLE.c ****     *             Descriptive Name for the device. The length of the local device
1371:Generated_Source\PSoC4/BLE.c ****     *             string is entered into the component customizer and it can be set
1372:Generated_Source\PSoC4/BLE.c ****     *             to a value from 0 to 248 bytes. If the name contained in the
1373:Generated_Source\PSoC4/BLE.c ****     *             parameter is shorter than the length from the customizer, the end
1374:Generated_Source\PSoC4/BLE.c ****     *             of the name is indicated by a NULL octet (0x00).
1375:Generated_Source\PSoC4/BLE.c ****     * 
1376:Generated_Source\PSoC4/BLE.c ****     * \return
1377:Generated_Source\PSoC4/BLE.c ****     *  CYBLE_API_RESULT_T : Return value indicates if the function succeeded or 
1378:Generated_Source\PSoC4/BLE.c ****     *  failed. Following are the possible error codes.
1379:Generated_Source\PSoC4/BLE.c ****     *
1380:Generated_Source\PSoC4/BLE.c ****     *   Errors codes                       | Description
1381:Generated_Source\PSoC4/BLE.c ****     *   ------------                       | -----------
1382:Generated_Source\PSoC4/BLE.c ****     *   CYBLE_ERROR_OK                     | Function completed successfully.
1383:Generated_Source\PSoC4/BLE.c ****     *   CYBLE_ERROR_INVALID_PARAMETER      | On specifying NULL as input parameter
1384:Generated_Source\PSoC4/BLE.c ****     *
1385:Generated_Source\PSoC4/BLE.c ****     *******************************************************************************/
1386:Generated_Source\PSoC4/BLE.c ****     CYBLE_API_RESULT_T CyBle_GapGetLocalName(char8 name[])
1387:Generated_Source\PSoC4/BLE.c ****     {
 1318              		.loc 1 1387 0
 1319              		.cfi_startproc
 1320              		@ args = 0, pretend = 0, frame = 0
 1321              		@ frame_needed = 0, uses_anonymous_args = 0
 1322              	.LVL127:
 1323 0000 10B5     		push	{r4, lr}
 1324              		.cfi_def_cfa_offset 8
 1325              		.cfi_offset 4, -8
 1326              		.cfi_offset 14, -4
 1327              	.LVL128:
1388:Generated_Source\PSoC4/BLE.c ****         CYBLE_API_RESULT_T apiResult = CYBLE_ERROR_OK;
1389:Generated_Source\PSoC4/BLE.c ****         uint8 charLen;
1390:Generated_Source\PSoC4/BLE.c ****         uint8 i;
1391:Generated_Source\PSoC4/BLE.c ****         char8 *ptr;
1392:Generated_Source\PSoC4/BLE.c **** 
1393:Generated_Source\PSoC4/BLE.c ****         if(NULL != name)
 1328              		.loc 1 1393 0
 1329 0002 0028     		cmp	r0, #0
 1330 0004 19D0     		beq	.L101
1394:Generated_Source\PSoC4/BLE.c ****         {
1395:Generated_Source\PSoC4/BLE.c ****             /* Get the pointer to the Device Name characteristic  */
1396:Generated_Source\PSoC4/BLE.c ****             ptr = (char8 *) CYBLE_GATT_DB_ATTR_GET_ATTR_GEN_PTR(cyBle_gaps.deviceNameCharHandle);
 1331              		.loc 1 1396 0
ARM GAS  C:\Users\jupac\AppData\Local\Temp\ccOKFWor.s 			page 52


 1332 0006 0E4B     		ldr	r3, .L102
 1333 0008 5B88     		ldrh	r3, [r3, #2]
 1334 000a 013B     		subs	r3, r3, #1
 1335 000c 9A00     		lsls	r2, r3, #2
 1336 000e D318     		adds	r3, r2, r3
 1337 0010 9A00     		lsls	r2, r3, #2
 1338 0012 0C4B     		ldr	r3, .L102+4
 1339 0014 9A18     		adds	r2, r3, r2
 1340 0016 1369     		ldr	r3, [r2, #16]
 1341 0018 5C68     		ldr	r4, [r3, #4]
 1342              	.LVL129:
1397:Generated_Source\PSoC4/BLE.c **** 
1398:Generated_Source\PSoC4/BLE.c ****             /* First need to get the length of the characteristic data in the GATT
1399:Generated_Source\PSoC4/BLE.c ****                 database to make sure there is enough place for the data. The length
1400:Generated_Source\PSoC4/BLE.c ****                 can't be longer than 248, so only the LSB of 16 bit of length is to
1401:Generated_Source\PSoC4/BLE.c ****                 be used. */
1402:Generated_Source\PSoC4/BLE.c ****             charLen = (uint8)CYBLE_GATT_DB_ATTR_GET_ATTR_GEN_LEN(cyBle_gaps.deviceNameCharHandle);
 1343              		.loc 1 1402 0
 1344 001a 1978     		ldrb	r1, [r3]
 1345              	.LVL130:
1403:Generated_Source\PSoC4/BLE.c **** 
1404:Generated_Source\PSoC4/BLE.c ****             /* Copy name from characteristic */
1405:Generated_Source\PSoC4/BLE.c ****             for(i = 0u; ((i < charLen) && (CYBLE_NULL_CHARCTER != ptr[i])); i++)
 1346              		.loc 1 1405 0
 1347 001c 0023     		movs	r3, #0
 1348 001e 02E0     		b	.L98
 1349              	.LVL131:
 1350              	.L100:
1406:Generated_Source\PSoC4/BLE.c ****             {
1407:Generated_Source\PSoC4/BLE.c ****                 name[i] = ptr[i];
 1351              		.loc 1 1407 0 discriminator 4
 1352 0020 C254     		strb	r2, [r0, r3]
1405:Generated_Source\PSoC4/BLE.c ****             {
 1353              		.loc 1 1405 0 discriminator 4
 1354 0022 0133     		adds	r3, r3, #1
 1355              	.LVL132:
 1356 0024 DBB2     		uxtb	r3, r3
 1357              	.LVL133:
 1358              	.L98:
1405:Generated_Source\PSoC4/BLE.c ****             {
 1359              		.loc 1 1405 0 is_stmt 0 discriminator 1
 1360 0026 8B42     		cmp	r3, r1
 1361 0028 02D2     		bcs	.L99
1405:Generated_Source\PSoC4/BLE.c ****             {
 1362              		.loc 1 1405 0 discriminator 3
 1363 002a E25C     		ldrb	r2, [r4, r3]
 1364 002c 002A     		cmp	r2, #0
 1365 002e F7D1     		bne	.L100
 1366              	.L99:
1408:Generated_Source\PSoC4/BLE.c ****             }
1409:Generated_Source\PSoC4/BLE.c **** 
1410:Generated_Source\PSoC4/BLE.c ****             /* Terminate string */
1411:Generated_Source\PSoC4/BLE.c ****             name[i] = CYBLE_NULL_CHARCTER;
 1367              		.loc 1 1411 0 is_stmt 1
 1368 0030 C318     		adds	r3, r0, r3
 1369              	.LVL134:
 1370 0032 0022     		movs	r2, #0
ARM GAS  C:\Users\jupac\AppData\Local\Temp\ccOKFWor.s 			page 53


 1371 0034 1A70     		strb	r2, [r3]
1388:Generated_Source\PSoC4/BLE.c ****         uint8 charLen;
 1372              		.loc 1 1388 0
 1373 0036 0020     		movs	r0, #0
 1374              	.LVL135:
 1375 0038 00E0     		b	.L97
 1376              	.LVL136:
 1377              	.L101:
1412:Generated_Source\PSoC4/BLE.c ****         }
1413:Generated_Source\PSoC4/BLE.c ****         else
1414:Generated_Source\PSoC4/BLE.c ****         {
1415:Generated_Source\PSoC4/BLE.c ****             apiResult = CYBLE_ERROR_INVALID_PARAMETER;
 1378              		.loc 1 1415 0
 1379 003a 0120     		movs	r0, #1
 1380              	.LVL137:
 1381              	.L97:
1416:Generated_Source\PSoC4/BLE.c ****         }
1417:Generated_Source\PSoC4/BLE.c ****         
1418:Generated_Source\PSoC4/BLE.c ****         return(apiResult);
1419:Generated_Source\PSoC4/BLE.c ****     }
 1382              		.loc 1 1419 0
 1383              		@ sp needed
 1384 003c 10BD     		pop	{r4, pc}
 1385              	.L103:
 1386 003e C046     		.align	2
 1387              	.L102:
 1388 0040 00000000 		.word	cyBle_gaps
 1389 0044 00000000 		.word	cyBle_gattDB
 1390              		.cfi_endproc
 1391              	.LFE17:
 1392              		.size	CyBle_GapGetLocalName, .-CyBle_GapGetLocalName
 1393              		.section	.text.CyBle_Get16ByPtr,"ax",%progbits
 1394              		.align	2
 1395              		.global	CyBle_Get16ByPtr
 1396              		.code	16
 1397              		.thumb_func
 1398              		.type	CyBle_Get16ByPtr, %function
 1399              	CyBle_Get16ByPtr:
 1400              	.LFB18:
1420:Generated_Source\PSoC4/BLE.c **** 
1421:Generated_Source\PSoC4/BLE.c **** #endif /* (CYBLE_GATT_ROLE_SERVER) */
1422:Generated_Source\PSoC4/BLE.c **** 
1423:Generated_Source\PSoC4/BLE.c **** 
1424:Generated_Source\PSoC4/BLE.c **** /******************************************************************************
1425:Generated_Source\PSoC4/BLE.c **** * Function Name: CyBle_Get16ByPtr
1426:Generated_Source\PSoC4/BLE.c **** ***************************************************************************//**
1427:Generated_Source\PSoC4/BLE.c **** * 
1428:Generated_Source\PSoC4/BLE.c **** *  Returns the two-bytes value by using a pointer to the LSB.
1429:Generated_Source\PSoC4/BLE.c **** * 
1430:Generated_Source\PSoC4/BLE.c **** *  \param ptr: Pointer to the LSB of two-bytes data (little endian).
1431:Generated_Source\PSoC4/BLE.c **** * 
1432:Generated_Source\PSoC4/BLE.c **** *  \return
1433:Generated_Source\PSoC4/BLE.c **** *  uint16: Two-bytes data.
1434:Generated_Source\PSoC4/BLE.c **** * 
1435:Generated_Source\PSoC4/BLE.c **** ******************************************************************************/
1436:Generated_Source\PSoC4/BLE.c **** uint16 CyBle_Get16ByPtr(const uint8 ptr[])
1437:Generated_Source\PSoC4/BLE.c **** {
ARM GAS  C:\Users\jupac\AppData\Local\Temp\ccOKFWor.s 			page 54


 1401              		.loc 1 1437 0
 1402              		.cfi_startproc
 1403              		@ args = 0, pretend = 0, frame = 0
 1404              		@ frame_needed = 0, uses_anonymous_args = 0
 1405              		@ link register save eliminated.
 1406              	.LVL138:
1438:Generated_Source\PSoC4/BLE.c ****     return ((uint16) ptr[0u] | ((uint16) (((uint16) ptr[1u]) << 8u)));
 1407              		.loc 1 1438 0
 1408 0000 0378     		ldrb	r3, [r0]
 1409 0002 4078     		ldrb	r0, [r0, #1]
 1410              	.LVL139:
 1411 0004 0002     		lsls	r0, r0, #8
 1412 0006 1843     		orrs	r0, r3
1439:Generated_Source\PSoC4/BLE.c **** }
 1413              		.loc 1 1439 0
 1414              		@ sp needed
 1415 0008 7047     		bx	lr
 1416              		.cfi_endproc
 1417              	.LFE18:
 1418              		.size	CyBle_Get16ByPtr, .-CyBle_Get16ByPtr
 1419 000a C046     		.section	.text.CyBle_Set16ByPtr,"ax",%progbits
 1420              		.align	2
 1421              		.global	CyBle_Set16ByPtr
 1422              		.code	16
 1423              		.thumb_func
 1424              		.type	CyBle_Set16ByPtr, %function
 1425              	CyBle_Set16ByPtr:
 1426              	.LFB19:
1440:Generated_Source\PSoC4/BLE.c **** 
1441:Generated_Source\PSoC4/BLE.c **** 
1442:Generated_Source\PSoC4/BLE.c **** /******************************************************************************
1443:Generated_Source\PSoC4/BLE.c **** * Function Name: CyBle_Set16ByPtr
1444:Generated_Source\PSoC4/BLE.c **** ***************************************************************************//**
1445:Generated_Source\PSoC4/BLE.c **** * 
1446:Generated_Source\PSoC4/BLE.c **** *  Sets the two-bytes value by using a pointer to the LSB.
1447:Generated_Source\PSoC4/BLE.c **** * 
1448:Generated_Source\PSoC4/BLE.c **** *  \param ptr:    Pointer to the LSB of two-bytes data (little endian).
1449:Generated_Source\PSoC4/BLE.c **** *  \param value:  Two-bytes data to be written.
1450:Generated_Source\PSoC4/BLE.c **** * 
1451:Generated_Source\PSoC4/BLE.c **** *  \return
1452:Generated_Source\PSoC4/BLE.c **** *  None
1453:Generated_Source\PSoC4/BLE.c **** * 
1454:Generated_Source\PSoC4/BLE.c **** ******************************************************************************/
1455:Generated_Source\PSoC4/BLE.c **** void CyBle_Set16ByPtr(uint8 ptr[], uint16 value)
1456:Generated_Source\PSoC4/BLE.c **** {
 1427              		.loc 1 1456 0
 1428              		.cfi_startproc
 1429              		@ args = 0, pretend = 0, frame = 0
 1430              		@ frame_needed = 0, uses_anonymous_args = 0
 1431              		@ link register save eliminated.
 1432              	.LVL140:
1457:Generated_Source\PSoC4/BLE.c ****     ptr[0u] = (uint8) value;
 1433              		.loc 1 1457 0
 1434 0000 0170     		strb	r1, [r0]
1458:Generated_Source\PSoC4/BLE.c ****     ptr[1u] = (uint8) (value >> 8u);
 1435              		.loc 1 1458 0
 1436 0002 090A     		lsrs	r1, r1, #8
ARM GAS  C:\Users\jupac\AppData\Local\Temp\ccOKFWor.s 			page 55


 1437              	.LVL141:
 1438 0004 4170     		strb	r1, [r0, #1]
1459:Generated_Source\PSoC4/BLE.c **** }
 1439              		.loc 1 1459 0
 1440              		@ sp needed
 1441 0006 7047     		bx	lr
 1442              		.cfi_endproc
 1443              	.LFE19:
 1444              		.size	CyBle_Set16ByPtr, .-CyBle_Set16ByPtr
 1445              		.global	cyBle_sflashDeviceAddress
 1446              		.global	cyBle_deviceAddress
 1447              		.comm	CyBle_ApplCallback,4,4
 1448              		.comm	cyBle_pendingFlashWrite,1,1
 1449              		.comm	cyBle_peerBonding,1,1
 1450              		.global	cyBle_discoveryInfo
 1451              		.comm	cyBle_connectingTimeout,2,2
 1452              		.comm	cyBle_connectionParameters,26,4
 1453              		.global	cyBle_discoveryModeInfo
 1454              		.global	cyBle_scanRspData
 1455              		.global	cyBle_discoveryData
 1456              		.global	cyBle_discoveryParam
 1457              		.global	cyBle_stackMemoryRam
 1458              		.global	cyBle_initVar
 1459              		.section	.rodata
 1460              		.align	2
 1461              		.set	.LANCHOR2,. + 0
 1462              	.LC0:
 1463 0000 2400     		.short	36
 1464 0002 03       		.byte	3
 1465 0003 00       		.space	1
 1466 0004 3000     		.short	48
 1467 0006 01       		.byte	1
 1468 0007 00       		.space	1
 1469 0008 2800     		.short	40
 1470 000a 02       		.byte	2
 1471 000b 00       		.space	1
 1472 000c 2400     		.short	36
 1473 000e 01       		.byte	1
 1474 000f 00       		.space	1
 1475 0010 2400     		.short	36
 1476 0012 01       		.byte	1
 1477 0013 00       		.space	1
 1478              		.data
 1479              		.align	2
 1480              		.set	.LANCHOR0,. + 0
 1481              		.type	cyBle_discoveryData, %object
 1482              		.size	cyBle_discoveryData, 32
 1483              	cyBle_discoveryData:
 1484 0000 02       		.byte	2
 1485 0001 01       		.byte	1
 1486 0002 04       		.byte	4
 1487 0003 1A       		.byte	26
 1488 0004 FF       		.byte	-1
 1489 0005 4C       		.byte	76
 1490 0006 00       		.byte	0
 1491 0007 02       		.byte	2
 1492 0008 15       		.byte	21
ARM GAS  C:\Users\jupac\AppData\Local\Temp\ccOKFWor.s 			page 56


 1493 0009 20       		.byte	32
 1494 000a 02       		.byte	2
 1495 000b 03       		.byte	3
 1496 000c 04       		.byte	4
 1497 000d 05       		.byte	5
 1498 000e 06       		.byte	6
 1499 000f 07       		.byte	7
 1500 0010 08       		.byte	8
 1501 0011 09       		.byte	9
 1502 0012 20       		.byte	32
 1503 0013 0B       		.byte	11
 1504 0014 0C       		.byte	12
 1505 0015 0D       		.byte	13
 1506 0016 0E       		.byte	14
 1507 0017 0F       		.byte	15
 1508 0018 20       		.byte	32
 1509 0019 11       		.byte	17
 1510 001a 12       		.byte	18
 1511 001b 13       		.byte	19
 1512 001c 14       		.byte	20
 1513 001d 15       		.byte	21
 1514 001e 00       		.byte	0
 1515 001f 1E       		.byte	30
 1516              		.type	cyBle_discoveryInfo, %object
 1517              		.size	cyBle_discoveryInfo, 12
 1518              	cyBle_discoveryInfo:
 1519 0020 02       		.byte	2
 1520 0021 00       		.byte	0
 1521 0022 2003     		.short	800
 1522 0024 2003     		.short	800
 1523 0026 00       		.byte	0
 1524 0027 00       		.byte	0
 1525 0028 0000     		.short	0
 1526 002a 00       		.byte	0
 1527 002b 00       		.space	1
 1528              		.type	cyBle_discoveryModeInfo, %object
 1529              		.size	cyBle_discoveryModeInfo, 20
 1530              	cyBle_discoveryModeInfo:
 1531 002c 00       		.byte	0
 1532 002d 000000   		.space	3
 1533 0030 00000000 		.word	cyBle_discoveryParam
 1534 0034 00000000 		.word	cyBle_discoveryData
 1535 0038 00000000 		.word	cyBle_scanRspData
 1536 003c 0000     		.short	0
 1537 003e 0000     		.space	2
 1538              		.type	cyBle_sflashDeviceAddress, %object
 1539              		.size	cyBle_sflashDeviceAddress, 4
 1540              	cyBle_sflashDeviceAddress:
 1541 0040 00F4FF0F 		.word	268432384
 1542              		.type	cyBle_deviceAddress, %object
 1543              		.size	cyBle_deviceAddress, 7
 1544              	cyBle_deviceAddress:
 1545 0044 00       		.byte	0
 1546 0045 00       		.byte	0
 1547 0046 00       		.byte	0
 1548 0047 50       		.byte	80
 1549 0048 A0       		.byte	-96
ARM GAS  C:\Users\jupac\AppData\Local\Temp\ccOKFWor.s 			page 57


 1550 0049 00       		.byte	0
 1551 004a 00       		.byte	0
 1552 004b 00       		.space	1
 1553              		.type	cyBle_discoveryParam, %object
 1554              		.size	cyBle_discoveryParam, 16
 1555              	cyBle_discoveryParam:
 1556 004c A000     		.short	160
 1557 004e A000     		.short	160
 1558 0050 03       		.byte	3
 1559 0051 00       		.byte	0
 1560 0052 00       		.byte	0
 1561 0053 00       		.byte	0
 1562 0054 00       		.byte	0
 1563 0055 00       		.byte	0
 1564 0056 50       		.byte	80
 1565 0057 A0       		.byte	-96
 1566 0058 00       		.byte	0
 1567 0059 07       		.byte	7
 1568 005a 00       		.byte	0
 1569 005b 00       		.space	1
 1570              		.section	.noinit,"aw",%progbits
 1571              		.align	3
 1572              		.set	.LANCHOR3,. + 0
 1573              		.type	cyBle_stackMemoryRam, %object
 1574              		.size	cyBle_stackMemoryRam, 3568
 1575              	cyBle_stackMemoryRam:
 1576 0000 00000000 		.space	3568
 1576      00000000 
 1576      00000000 
 1576      00000000 
 1576      00000000 
 1577              		.bss
 1578              		.align	2
 1579              		.set	.LANCHOR1,. + 0
 1580              		.type	cyBle_scanRspData, %object
 1581              		.size	cyBle_scanRspData, 32
 1582              	cyBle_scanRspData:
 1583 0000 00000000 		.space	32
 1583      00000000 
 1583      00000000 
 1583      00000000 
 1583      00000000 
 1584              		.type	cyBle_initVar, %object
 1585              		.size	cyBle_initVar, 1
 1586              	cyBle_initVar:
 1587 0020 00       		.space	1
 1588              		.type	cyBle_pendingFlashClearCccdHandle, %object
 1589              		.size	cyBle_pendingFlashClearCccdHandle, 1
 1590              	cyBle_pendingFlashClearCccdHandle:
 1591 0021 00       		.space	1
 1592              		.text
 1593              	.Letext0:
 1594              		.file 2 "Generated_Source\\PSoC4\\cytypes.h"
 1595              		.file 3 "Generated_Source\\PSoC4\\BLE_Stack.h"
 1596              		.file 4 "Generated_Source\\PSoC4\\BLE_StackGap.h"
 1597              		.file 5 "Generated_Source\\PSoC4\\BLE_StackGatt.h"
 1598              		.file 6 "Generated_Source\\PSoC4\\BLE_StackGattDb.h"
ARM GAS  C:\Users\jupac\AppData\Local\Temp\ccOKFWor.s 			page 58


 1599              		.file 7 "Generated_Source\\PSoC4\\BLE.h"
 1600              		.file 8 "Generated_Source\\PSoC4\\BLE_gatt.h"
 1601              		.file 9 "Generated_Source\\PSoC4\\BLE_eventHandler.h"
 1602              		.file 10 "Generated_Source\\PSoC4\\BLE_ias.h"
 1603              		.file 11 "Generated_Source\\PSoC4\\BLE_StackHostMain.h"
 1604              		.file 12 "c:\\program files (x86)\\cypress\\psoc creator\\4.4\\psoc creator\\import\\gnu\\arm\\5.4