ARM GAS  C:\Users\jupac\AppData\Local\Temp\cc1TkJmu.s 			page 1


   1              		.syntax unified
   2              		.cpu cortex-m0
   3              		.fpu softvfp
   4              		.eabi_attribute 20, 1
   5              		.eabi_attribute 21, 1
   6              		.eabi_attribute 23, 3
   7              		.eabi_attribute 24, 1
   8              		.eabi_attribute 25, 1
   9              		.eabi_attribute 26, 1
  10              		.eabi_attribute 30, 1
  11              		.eabi_attribute 34, 0
  12              		.eabi_attribute 18, 4
  13              		.thumb
  14              		.syntax unified
  15              		.file	"main.c"
  16              		.text
  17              	.Ltext0:
  18              		.cfi_sections	.debug_frame
  19              		.section	.text.AppCallBack,"ax",%progbits
  20              		.align	2
  21              		.global	AppCallBack
  22              		.code	16
  23              		.thumb_func
  24              		.type	AppCallBack, %function
  25              	AppCallBack:
  26              	.LFB36:
  27              		.file 1 "main.c"
   1:main.c        **** /* ========================================
   2:main.c        ****  *
   3:main.c        ****  * Copyright YOUR COMPANY, THE YEAR
   4:main.c        ****  * All Rights Reserved
   5:main.c        ****  * UNPUBLISHED, LICENSED SOFTWARE.
   6:main.c        ****  *a+
   7:main.c        ****  * CONFIDENTIAL AND PROPRIETARY INFORMATION
   8:main.c        ****  * WHICH IS THE PROPERTY OF your company.
   9:main.c        ****  *
  10:main.c        ****  * ========================================
  11:main.c        **** */
  12:main.c        **** #include "project.h"
  13:main.c        **** #include <stdio.h>
  14:main.c        **** #include <stdlib.h>
  15:main.c        **** 
  16:main.c        **** uint16_t contador=0; //Variable que se utiliza para controlar cuando el dispositivo deja de anuncia
  17:main.c        **** char databeacon[255]={0}; //Variable que se utiliza para copiar la trama recibida y poder mostrarla
  18:main.c        **** 
  19:main.c        **** //Variables conceptuales, juntas componen la trama, el encabezado fijo + la UUID
  20:main.c        **** //const uint8_t UUID_BEACON[16] = {0x01, 0x02, 0x03, 0x04, 0x05, 0x06, 0x07, 0x08, 0x09, 0x0A, 0x0B
  21:main.c        **** //const uint8_t HEADER_BEACON[9] = {0x02, 0x01, 0x04, 0x1A, 0xFF, 0x4C, 0x00, 0x02, 0x15};
  22:main.c        **** 
  23:main.c        **** const uint8_t BEACON_LENGHT=30;//Longitud de la trama 25+5 bytes no pertenecientes a la UIID
  24:main.c        **** 
  25:main.c        **** //TRAMA_X, TRAMA_Y, TRAMA_Z Se definen las tres siempre, por simpleza en los cambios, son las trama
  26:main.c        **** const uint8_t HEADER_AND_UUID_BEACONX[25]={0x02, 0x01, 0x04, 0x1A, 0xFF, 0x4C, 0x00, 0x02, 0x15, 0x
  27:main.c        **** const uint8_t HEADER_AND_UUID_BEACONY[25]={0x02, 0x01, 0x04, 0x1A, 0xFF, 0x4C, 0x00, 0x02, 0x15, 0x
  28:main.c        **** const uint8_t HEADER_AND_UUID_BEACONZ[25]={0x02, 0x01, 0x04, 0x1A, 0xFF, 0x4C, 0x00, 0x02, 0x15, 0x
  29:main.c        **** CYBLE_GAPC_DISC_INFO_T scaninfo;
  30:main.c        **** /**
ARM GAS  C:\Users\jupac\AppData\Local\Temp\cc1TkJmu.s 			page 2


  31:main.c        ****  *FUNCIÓN DE CALLBACK
  32:main.c        ****  *Esta función establece las acciones que debe realizar el dispositivo en respuesta a diferentes e
  33:main.c        ****  * @brief                   BLE module application callback.
  34:main.c        ****  * @param[in] event         Type of BLE event as defined in the BLE Stack.
  35:main.c        ****  * @param[in] eventParam    Parameters associated with the specific BLE event.
  36:main.c        ****  */
  37:main.c        **** void AppCallBack(uint32 event, void *eventParam)
  38:main.c        **** {
  28              		.loc 1 38 0
  29              		.cfi_startproc
  30              		@ args = 0, pretend = 0, frame = 0
  31              		@ frame_needed = 0, uses_anonymous_args = 0
  32              	.LVL0:
  33 0000 10B5     		push	{r4, lr}
  34              		.cfi_def_cfa_offset 8
  35              		.cfi_offset 4, -8
  36              		.cfi_offset 14, -4
  39:main.c        ****     (void) eventParam;
  40:main.c        **** 
  41:main.c        ****     switch (event)
  37              		.loc 1 41 0
  38 0002 2028     		cmp	r0, #32
  39 0004 07D0     		beq	.L3
  40 0006 2628     		cmp	r0, #38
  41 0008 1DD0     		beq	.L4
  42 000a 0128     		cmp	r0, #1
  43 000c 2ED1     		bne	.L1
  44              	.LBB2:
  42:main.c        ****     {
  43:main.c        ****     
  44:main.c        ****     //Puntero del tipo CYBLE_GAPC_ADV_REPORT_T llamado advReport iniciado a NULL
  45:main.c        ****     CYBLE_GAPC_ADV_REPORT_T *advReport = NULL;
  46:main.c        ****         
  47:main.c        ****     //Evento que sucede al iniciar el dispositivo    
  48:main.c        ****     case CYBLE_EVT_STACK_ON:
  49:main.c        ****         //Comenzar a escanear
  50:main.c        ****         CyBle_GapcStartDiscovery(&scaninfo);
  45              		.loc 1 50 0
  46 000e 1848     		ldr	r0, .L8
  47              	.LVL1:
  48 0010 FFF7FEFF 		bl	CyBle_GapcStartDiscovery
  49              	.LVL2:
  51:main.c        ****         break;
  50              		.loc 1 51 0
  51 0014 2AE0     		b	.L1
  52              	.LVL3:
  53              	.L3:
  52:main.c        ****         
  53:main.c        ****     /*Cada vez que se escanea un dispositivo salta este evento, donde se puede operar con los resul
  54:main.c        ****     case CYBLE_EVT_GAPC_SCAN_PROGRESS_RESULT:
  55:main.c        ****         
  56:main.c        ****         //Cuanto más tiempo se obtiene una peor eficiencia, por ello se intenta detectar que no es
  57:main.c        ****         
  58:main.c        ****         //Variable que se utiliza para poder acceder a datos obtenidos en el escaneo
  59:main.c        ****         advReport = (CYBLE_GAPC_ADV_REPORT_T*)eventParam;
  60:main.c        ****         
  61:main.c        **** //        SECCIÓN 1: DEBE COMENTARSE PARA VER TODAS LAS TRAMAS QUE LLEGAN
ARM GAS  C:\Users\jupac\AppData\Local\Temp\cc1TkJmu.s 			page 3


  62:main.c        ****         
  63:main.c        ****         /*Si las tramas escaneadas no son de la longitud correcta se termina el evento*/
  64:main.c        ****         if(advReport->dataLen!=BEACON_LENGHT){           
  54              		.loc 1 64 0
  55 0016 0B7A     		ldrb	r3, [r1, #8]
  56 0018 1E2B     		cmp	r3, #30
  57 001a 27D1     		bne	.L1
  65:main.c        ****             
  66:main.c        ****             break;
  67:main.c        ****         }
  68:main.c        ****         
  69:main.c        ****         /*Se comprueba si la trama es de nuestra red y si no lo es, se termina el evento*/
  70:main.c        ****         if (memcmp (&HEADER_AND_UUID_BEACONX[0], &advReport->data[0], 25)!=0){
  58              		.loc 1 70 0
  59 001c C968     		ldr	r1, [r1, #12]
  60              	.LVL4:
  61 001e 1922     		movs	r2, #25
  62 0020 1448     		ldr	r0, .L8+4
  63              	.LVL5:
  64 0022 FFF7FEFF 		bl	memcmp
  65              	.LVL6:
  66 0026 0028     		cmp	r0, #0
  67 0028 20D1     		bne	.L1
  71:main.c        ****             
  72:main.c        ****             break;            
  73:main.c        ****         }
  74:main.c        ****         
  75:main.c        ****         
  76:main.c        ****         // FIN SECCIÓN 1
  77:main.c        ****         
  78:main.c        ****         //Se detiene el escaneo de tramas si se detecta una de las buscadas
  79:main.c        ****         CyBle_GapcStopDiscovery();
  68              		.loc 1 79 0
  69 002a FFF7FEFF 		bl	CyBle_GapcStopDiscovery
  70              	.LVL7:
  71              	.L6:
  80:main.c        ****         //Espera a terminar de escanear 
  81:main.c        ****         while(CyBle_GetState()==CYBLE_STATE_SCANNING);
  72              		.loc 1 81 0 discriminator 1
  73 002e 124B     		ldr	r3, .L8+8
  74 0030 1B78     		ldrb	r3, [r3]
  75 0032 042B     		cmp	r3, #4
  76 0034 FBD0     		beq	.L6
  82:main.c        ****         //Se configura para enviar un solo paquete (3, uno en cada canal)
  83:main.c        ****         CyBle_GappSetNumOfAdvPkts(&cyBle_discoveryModeInfo,3);
  77              		.loc 1 83 0
  78 0036 0321     		movs	r1, #3
  79 0038 1048     		ldr	r0, .L8+12
  80 003a FFF7FEFF 		bl	CyBle_GappSetNumOfAdvPkts
  81              	.LVL8:
  84:main.c        ****         //Se inicia el anuncio del paquete hacia el siguiente dispositivo
  85:main.c        ****         
  86:main.c        ****         CyBle_GappStartAdvertisement(CYBLE_ADVERTISING_FAST);
  82              		.loc 1 86 0
  83 003e 0020     		movs	r0, #0
  84 0040 FFF7FEFF 		bl	CyBle_GappStartAdvertisement
  85              	.LVL9:
ARM GAS  C:\Users\jupac\AppData\Local\Temp\cc1TkJmu.s 			page 4


  87:main.c        ****         //LED1_Write(1);Para visualizar el retardo
  88:main.c        ****         
  89:main.c        ****         //SECCIÓN 2: LAS LÍNEAS SIGUIENTES DEBEN DEJAR DE SER CONSIDERADAS COMO COMENTARIO
  90:main.c        ****         //SI SE QUIERE VER POR PANTALLA EL CONTENIDO DE LAS TRAMAS RECIBIDAS
  91:main.c        ****         
  92:main.c        **** //        
  93:main.c        **** //        memcmp(databeacon, advReport->data, advReport->dataLen);
  94:main.c        **** //        for (uint32 i=0; i<advReport->dataLen; i++){
  95:main.c        **** //            
  96:main.c        **** //            snprintf(databeacon, 255, "%02x", advReport->data[i]);
  97:main.c        **** //            UART_PutString(databeacon);
  98:main.c        **** //            UART_PutString(",");
  99:main.c        **** //            memset(databeacon, 0, 255);
 100:main.c        **** //            //snprintf(&databeacon[i], 255,"%x", advReport->data[i] );
 101:main.c        **** //            
 102:main.c        **** //            //copiamos en data beacon lo que llega en el advReport
 103:main.c        **** //            
 104:main.c        **** //        }
 105:main.c        **** //        UART_PutString("\r\n,");
 106:main.c        **** //        CyDelay(500);
 107:main.c        ****         
 108:main.c        ****         
 109:main.c        ****         // FIN SECCIÓN 2
 110:main.c        ****            
 111:main.c        ****         
 112:main.c        ****         break;
  86              		.loc 1 112 0
  87 0044 12E0     		b	.L1
  88              	.LVL10:
  89              	.L4:
 113:main.c        ****         
 114:main.c        ****     //Evento que sucede al iniciarse o detenerse el anuncio de tramas    
 115:main.c        ****     case CYBLE_EVT_GAPP_ADVERTISEMENT_START_STOP :
 116:main.c        ****         //Aumenta el contador en 1
 117:main.c        ****         contador++;
  90              		.loc 1 117 0
  91 0046 0E4A     		ldr	r2, .L8+16
  92 0048 1388     		ldrh	r3, [r2]
  93 004a 0133     		adds	r3, r3, #1
  94 004c 9BB2     		uxth	r3, r3
  95 004e 1380     		strh	r3, [r2]
 118:main.c        ****         //Cuando el contador es 2 se detiene el anuncio de tramas, se reinicia el contador
 119:main.c        ****         //y se comienza a escanear de nuevo
 120:main.c        ****         if(contador==2){
  96              		.loc 1 120 0
  97 0050 022B     		cmp	r3, #2
  98 0052 0BD1     		bne	.L1
 121:main.c        ****             CyBle_GappStopAdvertisement();
  99              		.loc 1 121 0
 100 0054 FFF7FEFF 		bl	CyBle_GappStopAdvertisement
 101              	.LVL11:
 102              	.L7:
 122:main.c        ****             //LED1_Write(0); Para visualizar el retardo
 123:main.c        ****             while(CyBle_GetState()==CYBLE_STATE_ADVERTISING);
 103              		.loc 1 123 0 discriminator 1
 104 0058 074B     		ldr	r3, .L8+8
 105 005a 1B78     		ldrb	r3, [r3]
ARM GAS  C:\Users\jupac\AppData\Local\Temp\cc1TkJmu.s 			page 5


 106 005c 032B     		cmp	r3, #3
 107 005e FBD0     		beq	.L7
 124:main.c        ****             contador=0;
 108              		.loc 1 124 0
 109 0060 0022     		movs	r2, #0
 110 0062 074B     		ldr	r3, .L8+16
 111 0064 1A80     		strh	r2, [r3]
 125:main.c        ****             CyBle_GapcStartDiscovery(&scaninfo);
 112              		.loc 1 125 0
 113 0066 0248     		ldr	r0, .L8
 114 0068 FFF7FEFF 		bl	CyBle_GapcStartDiscovery
 115              	.LVL12:
 116              	.L1:
 117              	.LBE2:
 126:main.c        ****         }
 127:main.c        ****         break; 
 128:main.c        ****         
 129:main.c        ****     default:
 130:main.c        ****         break;
 131:main.c        ****     }
 132:main.c        **** }
 118              		.loc 1 132 0
 119              		@ sp needed
 120 006c 10BD     		pop	{r4, pc}
 121              	.L9:
 122 006e C046     		.align	2
 123              	.L8:
 124 0070 00000000 		.word	scaninfo
 125 0074 00000000 		.word	.LANCHOR0
 126 0078 00000000 		.word	cyBle_state
 127 007c 00000000 		.word	cyBle_discoveryModeInfo
 128 0080 00000000 		.word	.LANCHOR1
 129              		.cfi_endproc
 130              	.LFE36:
 131              		.size	AppCallBack, .-AppCallBack
 132              		.section	.text.main,"ax",%progbits
 133              		.align	2
 134              		.global	main
 135              		.code	16
 136              		.thumb_func
 137              		.type	main, %function
 138              	main:
 139              	.LFB37:
 133:main.c        **** 
 134:main.c        **** 
 135:main.c        **** int main(void)
 136:main.c        **** {
 140              		.loc 1 136 0
 141              		.cfi_startproc
 142              		@ Volatile: function does not return.
 143              		@ args = 0, pretend = 0, frame = 0
 144              		@ frame_needed = 0, uses_anonymous_args = 0
 145 0000 10B5     		push	{r4, lr}
 146              		.cfi_def_cfa_offset 8
 147              		.cfi_offset 4, -8
 148              		.cfi_offset 14, -4
 137:main.c        ****     
ARM GAS  C:\Users\jupac\AppData\Local\Temp\cc1TkJmu.s 			page 6


 138:main.c        ****     CyGlobalIntEnable; /* Enable global interrupts. */
 149              		.loc 1 138 0
 150              		.syntax divided
 151              	@ 138 "main.c" 1
 152 0002 62B6     		CPSIE   i
 153              	@ 0 "" 2
 139:main.c        ****     
 140:main.c        ****     //Configuración de scaninfo con los parámetros deseados, para poder detectar los dispositivos
 141:main.c        ****     scaninfo.discProcedure=CYBLE_GAPC_OBSER_PROCEDURE;//Procedimiento de escaneo, como observador
 154              		.loc 1 141 0
 155              		.thumb
 156              		.syntax unified
 157 0004 0C4B     		ldr	r3, .L12
 158 0006 0022     		movs	r2, #0
 159 0008 1A70     		strb	r2, [r3]
 142:main.c        ****     scaninfo.scanType=CYBLE_GAPC_PASSIVE_SCANNING;//Tipo de escaneo, pasivo
 160              		.loc 1 142 0
 161 000a 5A70     		strb	r2, [r3, #1]
 143:main.c        ****     scaninfo.scanIntv=1000;//Intervalo de escaneo
 162              		.loc 1 143 0
 163 000c FA21     		movs	r1, #250
 164 000e 8900     		lsls	r1, r1, #2
 165 0010 5980     		strh	r1, [r3, #2]
 144:main.c        ****     scaninfo.scanWindow=500;//Ventana de escaneo
 166              		.loc 1 144 0
 167 0012 F539     		subs	r1, r1, #245
 168 0014 FF39     		subs	r1, r1, #255
 169 0016 9980     		strh	r1, [r3, #4]
 145:main.c        ****     scaninfo.ownAddrType=CYBLE_GAP_ADDR_TYPE_PUBLIC;//Tipo de dirección propia, pública
 170              		.loc 1 145 0
 171 0018 9A71     		strb	r2, [r3, #6]
 146:main.c        ****     scaninfo.scanFilterPolicy=CYBLE_GAPC_ADV_ACCEPT_ALL_PKT;//Politica de filtrado, aceptar todo
 172              		.loc 1 146 0
 173 001a DA71     		strb	r2, [r3, #7]
 147:main.c        ****     scaninfo.scanTo=0;
 174              		.loc 1 147 0
 175 001c 1A81     		strh	r2, [r3, #8]
 148:main.c        ****     scaninfo.filterDuplicates=CYBLE_GAPC_FILTER_DUP_DISABLE;//Deshabilitar el filtrado de duplicado
 176              		.loc 1 148 0
 177 001e 9A72     		strb	r2, [r3, #10]
 149:main.c        ****     
 150:main.c        ****     CyBle_Start(AppCallBack);//Se inicia el dispositivo a través de la función de callback, que g
 178              		.loc 1 150 0
 179 0020 0648     		ldr	r0, .L12+4
 180 0022 FFF7FEFF 		bl	CyBle_Start
 181              	.LVL13:
 151:main.c        ****     UART_Start();//Se inicia la UART para poder mostrar contenido en pantalla
 182              		.loc 1 151 0
 183 0026 FFF7FEFF 		bl	UART_Start
 184              	.LVL14:
 152:main.c        ****     UART_PutString("Programa Iniciado Re-transmisor1\r\n");//Se escribe este mensaje en la UART, al
 185              		.loc 1 152 0
 186 002a 0548     		ldr	r0, .L12+8
 187 002c FFF7FEFF 		bl	UART_PutString
 188              	.LVL15:
 189              	.L11:
 153:main.c        ****     
ARM GAS  C:\Users\jupac\AppData\Local\Temp\cc1TkJmu.s 			page 7


 154:main.c        ****     for(;;)
 155:main.c        ****     {
 156:main.c        ****         CyBle_ProcessEvents();// Se procesan los eventos
 190              		.loc 1 156 0 discriminator 1
 191 0030 FFF7FEFF 		bl	CyBle_ProcessEvents
 192              	.LVL16:
 193 0034 FCE7     		b	.L11
 194              	.L13:
 195 0036 C046     		.align	2
 196              	.L12:
 197 0038 00000000 		.word	scaninfo
 198 003c 00000000 		.word	AppCallBack
 199 0040 00000000 		.word	.LC7
 200              		.cfi_endproc
 201              	.LFE37:
 202              		.size	main, .-main
 203              		.comm	scaninfo,12,4
 204              		.global	HEADER_AND_UUID_BEACONZ
 205              		.global	HEADER_AND_UUID_BEACONY
 206              		.global	HEADER_AND_UUID_BEACONX
 207              		.global	BEACON_LENGHT
 208              		.global	databeacon
 209              		.global	contador
 210              		.section	.rodata
 211              		.align	2
 212              		.set	.LANCHOR0,. + 0
 213              		.type	HEADER_AND_UUID_BEACONX, %object
 214              		.size	HEADER_AND_UUID_BEACONX, 25
 215              	HEADER_AND_UUID_BEACONX:
 216 0000 02       		.byte	2
 217 0001 01       		.byte	1
 218 0002 04       		.byte	4
 219 0003 1A       		.byte	26
 220 0004 FF       		.byte	-1
 221 0005 4C       		.byte	76
 222 0006 00       		.byte	0
 223 0007 02       		.byte	2
 224 0008 15       		.byte	21
 225 0009 01       		.byte	1
 226 000a 02       		.byte	2
 227 000b 03       		.byte	3
 228 000c 04       		.byte	4
 229 000d 05       		.byte	5
 230 000e 06       		.byte	6
 231 000f 07       		.byte	7
 232 0010 08       		.byte	8
 233 0011 09       		.byte	9
 234 0012 0A       		.byte	10
 235 0013 0B       		.byte	11
 236 0014 0C       		.byte	12
 237 0015 0D       		.byte	13
 238 0016 0E       		.byte	14
 239 0017 0F       		.byte	15
 240 0018 10       		.byte	16
 241 0019 000000   		.space	3
 242              		.type	HEADER_AND_UUID_BEACONZ, %object
 243              		.size	HEADER_AND_UUID_BEACONZ, 25
ARM GAS  C:\Users\jupac\AppData\Local\Temp\cc1TkJmu.s 			page 8


 244              	HEADER_AND_UUID_BEACONZ:
 245 001c 02       		.byte	2
 246 001d 01       		.byte	1
 247 001e 04       		.byte	4
 248 001f 1A       		.byte	26
 249 0020 FF       		.byte	-1
 250 0021 4C       		.byte	76
 251 0022 00       		.byte	0
 252 0023 02       		.byte	2
 253 0024 15       		.byte	21
 254 0025 30       		.byte	48
 255 0026 02       		.byte	2
 256 0027 03       		.byte	3
 257 0028 04       		.byte	4
 258 0029 05       		.byte	5
 259 002a 06       		.byte	6
 260 002b 07       		.byte	7
 261 002c 08       		.byte	8
 262 002d 09       		.byte	9
 263 002e 30       		.byte	48
 264 002f 0B       		.byte	11
 265 0030 0C       		.byte	12
 266 0031 0D       		.byte	13
 267 0032 0E       		.byte	14
 268 0033 0F       		.byte	15
 269 0034 30       		.byte	48
 270 0035 000000   		.space	3
 271              		.type	HEADER_AND_UUID_BEACONY, %object
 272              		.size	HEADER_AND_UUID_BEACONY, 25
 273              	HEADER_AND_UUID_BEACONY:
 274 0038 02       		.byte	2
 275 0039 01       		.byte	1
 276 003a 04       		.byte	4
 277 003b 1A       		.byte	26
 278 003c FF       		.byte	-1
 279 003d 4C       		.byte	76
 280 003e 00       		.byte	0
 281 003f 02       		.byte	2
 282 0040 15       		.byte	21
 283 0041 20       		.byte	32
 284 0042 02       		.byte	2
 285 0043 03       		.byte	3
 286 0044 04       		.byte	4
 287 0045 05       		.byte	5
 288 0046 06       		.byte	6
 289 0047 07       		.byte	7
 290 0048 08       		.byte	8
 291 0049 09       		.byte	9
 292 004a 20       		.byte	32
 293 004b 0B       		.byte	11
 294 004c 0C       		.byte	12
 295 004d 0D       		.byte	13
 296 004e 0E       		.byte	14
 297 004f 0F       		.byte	15
 298 0050 20       		.byte	32
 299              		.type	BEACON_LENGHT, %object
 300              		.size	BEACON_LENGHT, 1
ARM GAS  C:\Users\jupac\AppData\Local\Temp\cc1TkJmu.s 			page 9


 301              	BEACON_LENGHT:
 302 0051 1E       		.byte	30
 303              		.section	.rodata.str1.4,"aMS",%progbits,1
 304              		.align	2
 305              	.LC7:
 306 0000 50726F67 		.ascii	"Programa Iniciado Re-transmisor1\015\012\000"
 306      72616D61 
 306      20496E69 
 306      63696164 
 306      6F205265 
 307              		.bss
 308              		.align	2
 309              		.set	.LANCHOR1,. + 0
 310              		.type	contador, %object
 311              		.size	contador, 2
 312              	contador:
 313 0000 0000     		.space	2
 314 0002 0000     		.space	2
 315              		.type	databeacon, %object
 316              		.size	databeacon, 255
 317              	databeacon:
 318 0004 00000000 		.space	255
 318      00000000 
 318      00000000 
 318      00000000 
 318      00000000 
 319              		.text
 320              	.Letext0:
 321              		.file 2 "c:\\program files (x86)\\cypress\\psoc creator\\4.4\\psoc creator\\import\\gnu\\arm\\5.4.
 322              		.file 3 "c:\\program files (x86)\\cypress\\psoc creator\\4.4\\psoc creator\\import\\gnu\\arm\\5.4.
 323              		.file 4 "Generated_Source\\PSoC4/cytypes.h"
 324              		.file 5 "Generated_Source\\PSoC4/BLE_Stack.h"
 325              		.file 6 "Generated_Source\\PSoC4/BLE_StackGap.h"
 326              		.file 7 "Generated_Source\\PSoC4/BLE_eventHandler.h"
 327              		.file 8 "Generated_Source\\PSoC4/BLE.h"
 328              		.file 9 "c:\\program files (x86)\\cypress\\psoc creator\\4.4\\psoc creator\\import\\gnu\\arm\\5.4.
 329              		.file 10 "Generated_Source\\PSoC4/UART.h"