ARM GAS  C:\Users\jupac\AppData\Local\Temp\ccO2skXL.s 			page 1


   1              		.syntax unified
   2              		.cpu cortex-m0
   3              		.fpu softvfp
   4              		.eabi_attribute 20, 1
   5              		.eabi_attribute 21, 1
   6              		.eabi_attribute 23, 3
   7              		.eabi_attribute 24, 1
   8              		.eabi_attribute 25, 1
   9              		.eabi_attribute 26, 1
  10              		.eabi_attribute 30, 1
  11              		.eabi_attribute 34, 0
  12              		.eabi_attribute 18, 4
  13              		.thumb
  14              		.syntax unified
  15              		.file	"main.c"
  16              		.text
  17              	.Ltext0:
  18              		.cfi_sections	.debug_frame
  19              		.section	.text.AppCallBack,"ax",%progbits
  20              		.align	2
  21              		.global	AppCallBack
  22              		.code	16
  23              		.thumb_func
  24              		.type	AppCallBack, %function
  25              	AppCallBack:
  26              	.LFB36:
  27              		.file 1 "main.c"
   1:main.c        **** /* ========================================
   2:main.c        ****  *
   3:main.c        ****  * Copyright YOUR COMPANY, THE YEAR
   4:main.c        ****  * All Rights Reserved
   5:main.c        ****  * UNPUBLISHED, LICENSED SOFTWARE.
   6:main.c        ****  *a+
   7:main.c        ****  * CONFIDENTIAL AND PROPRIETARY INFORMATION
   8:main.c        ****  * WHICH IS THE PROPERTY OF your company.
   9:main.c        ****  *Juan Pablo Cano López
  10:main.c        ****  * ========================================
  11:main.c        **** */
  12:main.c        **** #include "project.h"
  13:main.c        **** #include <stdio.h>
  14:main.c        **** #include <stdlib.h>
  15:main.c        **** 
  16:main.c        **** uint16_t contador=0; //Contador utilizado para controlar cuando el dispositivo detiene el envío de
  17:main.c        **** char PrintBuffer[255]={0};//String utilizado para mostrar información por la UART
  18:main.c        **** extern CYBLE_GAPP_DISC_MODE_INFO_T cyBle_discoveryModeInfo; //Variable definida externamente utiliz
  19:main.c        ****                                                             //en la orden CyBle_GappSetNumOfAdvPkts
  20:main.c        **** 
  21:main.c        **** /**
  22:main.c        ****  *FUNCIÓN DE CALLBACK
  23:main.c        ****  *Esta función establece las acciones que debe realizar el dispositivo en respuesta a diferentes e
  24:main.c        ****  * @brief                   BLE module application callback.
  25:main.c        ****  * @param[in] event         Type of BLE event as defined in the BLE Stack.
  26:main.c        ****  * @param[in] eventParam    Parameters associated with the specific BLE event.
  27:main.c        ****  */
  28:main.c        **** void AppCallBack(uint32 event, void *eventParam)
  29:main.c        **** {
  28              		.loc 1 29 0
ARM GAS  C:\Users\jupac\AppData\Local\Temp\ccO2skXL.s 			page 2


  29              		.cfi_startproc
  30              		@ args = 0, pretend = 0, frame = 0
  31              		@ frame_needed = 0, uses_anonymous_args = 0
  32              	.LVL0:
  33 0000 10B5     		push	{r4, lr}
  34              		.cfi_def_cfa_offset 8
  35              		.cfi_offset 4, -8
  36              		.cfi_offset 14, -4
  30:main.c        ****     (void) eventParam;
  31:main.c        **** 
  32:main.c        ****     switch (event)
  37              		.loc 1 32 0
  38 0002 0128     		cmp	r0, #1
  39 0004 02D0     		beq	.L3
  40 0006 2628     		cmp	r0, #38
  41 0008 0FD0     		beq	.L4
  42 000a 1AE0     		b	.L1
  43              	.L3:
  33:main.c        ****     {
  34:main.c        ****   
  35:main.c        ****     //Evento que sucede al iniciar el dispositivo
  36:main.c        ****     case CYBLE_EVT_STACK_ON:
  37:main.c        ****         
  38:main.c        ****         //Se fija una cantidad total de 600 paquetes (200 paquetes en cada uno de los canales) 
  39:main.c        ****         CyBle_GappSetNumOfAdvPkts(&cyBle_discoveryModeInfo,600);
  44              		.loc 1 39 0
  45 000c 9621     		movs	r1, #150
  46              	.LVL1:
  47 000e 8900     		lsls	r1, r1, #2
  48 0010 0C48     		ldr	r0, .L5
  49              	.LVL2:
  50 0012 FFF7FEFF 		bl	CyBle_GappSetNumOfAdvPkts
  51              	.LVL3:
  40:main.c        ****         //Espera de 5s antes de iniciar a transmitir
  41:main.c        ****         CyDelay(5000);
  52              		.loc 1 41 0
  53 0016 0C48     		ldr	r0, .L5+4
  54 0018 FFF7FEFF 		bl	CyDelay
  55              	.LVL4:
  42:main.c        ****         //Encender led para indicar que se comienza a transmitir tramas
  43:main.c        ****         LED1_Write(1);
  56              		.loc 1 43 0
  57 001c 0120     		movs	r0, #1
  58 001e FFF7FEFF 		bl	LED1_Write
  59              	.LVL5:
  44:main.c        ****         //Comenzar a enviar tramas de anuncio
  45:main.c        ****         CyBle_GappStartAdvertisement(CYBLE_ADVERTISING_FAST);
  60              		.loc 1 45 0
  61 0022 0020     		movs	r0, #0
  62 0024 FFF7FEFF 		bl	CyBle_GappStartAdvertisement
  63              	.LVL6:
  46:main.c        ****         
  47:main.c        ****         break;
  64              		.loc 1 47 0
  65 0028 0BE0     		b	.L1
  66              	.LVL7:
  67              	.L4:
ARM GAS  C:\Users\jupac\AppData\Local\Temp\ccO2skXL.s 			page 3


  48:main.c        ****         
  49:main.c        ****     //Evento que sucede cuando se inicia el advertisement o se detiene
  50:main.c        ****     //Cuando el anunciador termina de anunciar los paquetes entra en este estado
  51:main.c        ****     //con valor de contador = 1, se le suma 1 a este valor, detiene el advertising y apaga el led d
  52:main.c        ****     case CYBLE_EVT_GAPP_ADVERTISEMENT_START_STOP:
  53:main.c        ****         
  54:main.c        ****     contador++;
  68              		.loc 1 54 0
  69 002a 084A     		ldr	r2, .L5+8
  70 002c 1388     		ldrh	r3, [r2]
  71 002e 0133     		adds	r3, r3, #1
  72 0030 9BB2     		uxth	r3, r3
  73 0032 1380     		strh	r3, [r2]
  55:main.c        ****         
  56:main.c        ****     //Sección que sirve para visualizar el contador, tendrá 2, como valor al finalizar el program
  57:main.c        ****         
  58:main.c        ****     //snprintf(PrintBuffer, 255,"%u", contador);
  59:main.c        ****     //UART_PutString(PrintBuffer);
  60:main.c        ****     //UART_PutString("\r\n");
  61:main.c        ****         
  62:main.c        ****     //Fin sección de visualización del contador
  63:main.c        ****     
  64:main.c        ****     //Cuando el contador toma el valor 2 el dispositivo cesa de enviar tramas de anuncio y apaga el
  65:main.c        ****     if(contador==2){
  74              		.loc 1 65 0
  75 0034 022B     		cmp	r3, #2
  76 0036 04D1     		bne	.L1
  66:main.c        ****         //Detener anuncios
  67:main.c        ****         CyBle_GappStopAdvertisement();
  77              		.loc 1 67 0
  78 0038 FFF7FEFF 		bl	CyBle_GappStopAdvertisement
  79              	.LVL8:
  68:main.c        ****         //Apagar led de control
  69:main.c        ****         LED1_Write(0);
  80              		.loc 1 69 0
  81 003c 0020     		movs	r0, #0
  82 003e FFF7FEFF 		bl	LED1_Write
  83              	.LVL9:
  84              	.L1:
  70:main.c        ****     }
  71:main.c        ****     
  72:main.c        ****     break;    
  73:main.c        ****    
  74:main.c        ****     default:
  75:main.c        ****         break;
  76:main.c        ****     }
  77:main.c        **** }
  85              		.loc 1 77 0
  86              		@ sp needed
  87 0042 10BD     		pop	{r4, pc}
  88              	.L6:
  89              		.align	2
  90              	.L5:
  91 0044 00000000 		.word	cyBle_discoveryModeInfo
  92 0048 88130000 		.word	5000
  93 004c 00000000 		.word	.LANCHOR0
  94              		.cfi_endproc
ARM GAS  C:\Users\jupac\AppData\Local\Temp\ccO2skXL.s 			page 4


  95              	.LFE36:
  96              		.size	AppCallBack, .-AppCallBack
  97              		.section	.text.main,"ax",%progbits
  98              		.align	2
  99              		.global	main
 100              		.code	16
 101              		.thumb_func
 102              		.type	main, %function
 103              	main:
 104              	.LFB37:
  78:main.c        **** 
  79:main.c        **** int main(void)
  80:main.c        **** {
 105              		.loc 1 80 0
 106              		.cfi_startproc
 107              		@ Volatile: function does not return.
 108              		@ args = 0, pretend = 0, frame = 0
 109              		@ frame_needed = 0, uses_anonymous_args = 0
 110 0000 10B5     		push	{r4, lr}
 111              		.cfi_def_cfa_offset 8
 112              		.cfi_offset 4, -8
 113              		.cfi_offset 14, -4
  81:main.c        **** 
  82:main.c        ****     CyGlobalIntEnable; /* Enable global interrupts. */
 114              		.loc 1 82 0
 115              		.syntax divided
 116              	@ 82 "main.c" 1
 117 0002 62B6     		CPSIE   i
 118              	@ 0 "" 2
  83:main.c        ****     CyBle_Start(AppCallBack);// Iniciamos el dispositivo a través de la función de callback
 119              		.loc 1 83 0
 120              		.thumb
 121              		.syntax unified
 122 0004 0548     		ldr	r0, .L9
 123 0006 FFF7FEFF 		bl	CyBle_Start
 124              	.LVL10:
  84:main.c        ****     UART_Start();//Iniciamos la UART para poder visualizar datos
 125              		.loc 1 84 0
 126 000a FFF7FEFF 		bl	UART_Start
 127              	.LVL11:
 128              	.L8:
  85:main.c        **** 
  86:main.c        ****     for(;;)
  87:main.c        ****     {    
  88:main.c        ****         //El dispositivo procesa las órdenes enviadas
  89:main.c        ****         CyBle_ProcessEvents();
 129              		.loc 1 89 0 discriminator 1
 130 000e FFF7FEFF 		bl	CyBle_ProcessEvents
 131              	.LVL12:
  90:main.c        ****         //Espera de un tiempo pequeño debe ser la mitad del advertising interval o menos
  91:main.c        ****         CyDelay(50);
 132              		.loc 1 91 0 discriminator 1
 133 0012 3220     		movs	r0, #50
 134 0014 FFF7FEFF 		bl	CyDelay
 135              	.LVL13:
 136 0018 F9E7     		b	.L8
 137              	.L10:
ARM GAS  C:\Users\jupac\AppData\Local\Temp\ccO2skXL.s 			page 5


 138 001a C046     		.align	2
 139              	.L9:
 140 001c 00000000 		.word	AppCallBack
 141              		.cfi_endproc
 142              	.LFE37:
 143              		.size	main, .-main
 144              		.global	PrintBuffer
 145              		.global	contador
 146              		.bss
 147              		.align	2
 148              		.set	.LANCHOR0,. + 0
 149              		.type	contador, %object
 150              		.size	contador, 2
 151              	contador:
 152 0000 0000     		.space	2
 153 0002 0000     		.space	2
 154              		.type	PrintBuffer, %object
 155              		.size	PrintBuffer, 255
 156              	PrintBuffer:
 157 0004 00000000 		.space	255
 157      00000000 
 157      00000000 
 157      00000000 
 157      00000000 
 158              		.text
 159              	.Letext0:
 160              		.file 2 "c:\\program files (x86)\\cypress\\psoc creator\\4.4\\psoc creator\\import\\gnu\\arm\\5.4.
 161              		.file 3 "c:\\program files (x86)\\cypress\\psoc creator\\4.4\\psoc creator\\import\\gnu\\arm\\5.4.
 162              		.file 4 "Generated_Source\\PSoC4/cytypes.h"
 163              		.file 5 "Generated_Source\\PSoC4/BLE_Stack.h"
 164              		.file 6 "Generated_Source\\PSoC4/BLE_StackGap.h"
 165              		.file 7 "Generated_Source\\PSoC4/CyLib.h"
 166              		.file 8 "Generated_Source\\PSoC4/LED1.h"
 167              		.file 9 "Generated_Source\\PSoC4/BLE.h"
 168              		.file 10 "Generated_Source\\PSoC4/UART.h"