ARM GAS  C:\Users\jupac\AppData\Local\Temp\ccEXxjja.s 			page 1


   1              		.syntax unified
   2              		.cpu cortex-m0
   3              		.fpu softvfp
   4              		.eabi_attribute 20, 1
   5              		.eabi_attribute 21, 1
   6              		.eabi_attribute 23, 3
   7              		.eabi_attribute 24, 1
   8              		.eabi_attribute 25, 1
   9              		.eabi_attribute 26, 1
  10              		.eabi_attribute 30, 1
  11              		.eabi_attribute 34, 0
  12              		.eabi_attribute 18, 4
  13              		.thumb
  14              		.syntax unified
  15              		.file	"cyfitter_cfg.c"
  16              		.text
  17              	.Ltext0:
  18              		.cfi_sections	.debug_frame
  19              		.section	.text.cfg_write_bytes32,"ax",%progbits
  20              		.align	2
  21              		.code	16
  22              		.thumb_func
  23              		.type	cfg_write_bytes32, %function
  24              	cfg_write_bytes32:
  25              	.LFB5:
  26              		.file 1 "Generated_Source\\PSoC4\\cyfitter_cfg.c"
   1:Generated_Source\PSoC4/cyfitter_cfg.c **** 
   2:Generated_Source\PSoC4/cyfitter_cfg.c **** /*******************************************************************************
   3:Generated_Source\PSoC4/cyfitter_cfg.c **** * File Name: cyfitter_cfg.c
   4:Generated_Source\PSoC4/cyfitter_cfg.c **** * 
   5:Generated_Source\PSoC4/cyfitter_cfg.c **** * PSoC Creator  4.4
   6:Generated_Source\PSoC4/cyfitter_cfg.c **** *
   7:Generated_Source\PSoC4/cyfitter_cfg.c **** * Description:
   8:Generated_Source\PSoC4/cyfitter_cfg.c **** * This file contains device initialization code.
   9:Generated_Source\PSoC4/cyfitter_cfg.c **** * Except for the user defined sections in CyClockStartupError(), this file should not be modified.
  10:Generated_Source\PSoC4/cyfitter_cfg.c **** * This file is automatically generated by PSoC Creator.
  11:Generated_Source\PSoC4/cyfitter_cfg.c **** *
  12:Generated_Source\PSoC4/cyfitter_cfg.c **** ********************************************************************************
  13:Generated_Source\PSoC4/cyfitter_cfg.c **** * Copyright (c) 2007-2020 Cypress Semiconductor.  All rights reserved.
  14:Generated_Source\PSoC4/cyfitter_cfg.c **** * You may use this file only in accordance with the license, terms, conditions, 
  15:Generated_Source\PSoC4/cyfitter_cfg.c **** * disclaimers, and limitations in the end user license agreement accompanying 
  16:Generated_Source\PSoC4/cyfitter_cfg.c **** * the software package with which this file was provided.
  17:Generated_Source\PSoC4/cyfitter_cfg.c **** ********************************************************************************/
  18:Generated_Source\PSoC4/cyfitter_cfg.c **** 
  19:Generated_Source\PSoC4/cyfitter_cfg.c **** #include <string.h>
  20:Generated_Source\PSoC4/cyfitter_cfg.c **** #include "cytypes.h"
  21:Generated_Source\PSoC4/cyfitter_cfg.c **** #include "cydevice_trm.h"
  22:Generated_Source\PSoC4/cyfitter_cfg.c **** #include "cyfitter.h"
  23:Generated_Source\PSoC4/cyfitter_cfg.c **** #include "CyLib.h"
  24:Generated_Source\PSoC4/cyfitter_cfg.c **** #include "CyLFClk.h"
  25:Generated_Source\PSoC4/cyfitter_cfg.c **** #include "cyfitter_cfg.h"
  26:Generated_Source\PSoC4/cyfitter_cfg.c **** #include "cyapicallbacks.h"
  27:Generated_Source\PSoC4/cyfitter_cfg.c **** 
  28:Generated_Source\PSoC4/cyfitter_cfg.c **** 
  29:Generated_Source\PSoC4/cyfitter_cfg.c **** #if defined(__GNUC__) || defined(__ARMCC_VERSION)
  30:Generated_Source\PSoC4/cyfitter_cfg.c ****     #define CYPACKED 
  31:Generated_Source\PSoC4/cyfitter_cfg.c ****     #define CYPACKED_ATTR __attribute__ ((packed))
ARM GAS  C:\Users\jupac\AppData\Local\Temp\ccEXxjja.s 			page 2


  32:Generated_Source\PSoC4/cyfitter_cfg.c ****     #define CYALIGNED __attribute__ ((aligned))
  33:Generated_Source\PSoC4/cyfitter_cfg.c ****     #define CY_CFG_UNUSED __attribute__ ((unused))
  34:Generated_Source\PSoC4/cyfitter_cfg.c ****     #ifndef CY_CFG_SECTION
  35:Generated_Source\PSoC4/cyfitter_cfg.c ****         #define CY_CFG_SECTION __attribute__ ((section(".psocinit")))
  36:Generated_Source\PSoC4/cyfitter_cfg.c ****     #endif
  37:Generated_Source\PSoC4/cyfitter_cfg.c ****     
  38:Generated_Source\PSoC4/cyfitter_cfg.c ****     #if defined(__ARMCC_VERSION)
  39:Generated_Source\PSoC4/cyfitter_cfg.c ****         #define CY_CFG_MEMORY_BARRIER() __memory_changed()
  40:Generated_Source\PSoC4/cyfitter_cfg.c ****     #else
  41:Generated_Source\PSoC4/cyfitter_cfg.c ****         #define CY_CFG_MEMORY_BARRIER() __sync_synchronize()
  42:Generated_Source\PSoC4/cyfitter_cfg.c ****     #endif
  43:Generated_Source\PSoC4/cyfitter_cfg.c ****     
  44:Generated_Source\PSoC4/cyfitter_cfg.c **** #elif defined(__ICCARM__)
  45:Generated_Source\PSoC4/cyfitter_cfg.c ****     #include <intrinsics.h>
  46:Generated_Source\PSoC4/cyfitter_cfg.c **** 
  47:Generated_Source\PSoC4/cyfitter_cfg.c ****     #define CYPACKED __packed
  48:Generated_Source\PSoC4/cyfitter_cfg.c ****     #define CYPACKED_ATTR 
  49:Generated_Source\PSoC4/cyfitter_cfg.c ****     #define CYALIGNED _Pragma("data_alignment=4")
  50:Generated_Source\PSoC4/cyfitter_cfg.c ****     #define CY_CFG_UNUSED _Pragma("diag_suppress=Pe177")
  51:Generated_Source\PSoC4/cyfitter_cfg.c ****     #define CY_CFG_SECTION _Pragma("location=\".psocinit\"")
  52:Generated_Source\PSoC4/cyfitter_cfg.c ****     
  53:Generated_Source\PSoC4/cyfitter_cfg.c ****     #define CY_CFG_MEMORY_BARRIER() __DMB()
  54:Generated_Source\PSoC4/cyfitter_cfg.c ****     
  55:Generated_Source\PSoC4/cyfitter_cfg.c **** #else
  56:Generated_Source\PSoC4/cyfitter_cfg.c ****     #error Unsupported toolchain
  57:Generated_Source\PSoC4/cyfitter_cfg.c **** #endif
  58:Generated_Source\PSoC4/cyfitter_cfg.c **** 
  59:Generated_Source\PSoC4/cyfitter_cfg.c **** #ifndef CYCODE
  60:Generated_Source\PSoC4/cyfitter_cfg.c ****     #define CYCODE
  61:Generated_Source\PSoC4/cyfitter_cfg.c **** #endif
  62:Generated_Source\PSoC4/cyfitter_cfg.c **** #ifndef CYDATA
  63:Generated_Source\PSoC4/cyfitter_cfg.c ****     #define CYDATA
  64:Generated_Source\PSoC4/cyfitter_cfg.c **** #endif
  65:Generated_Source\PSoC4/cyfitter_cfg.c **** #ifndef CYFAR
  66:Generated_Source\PSoC4/cyfitter_cfg.c ****     #define CYFAR
  67:Generated_Source\PSoC4/cyfitter_cfg.c **** #endif
  68:Generated_Source\PSoC4/cyfitter_cfg.c **** #ifndef CYXDATA
  69:Generated_Source\PSoC4/cyfitter_cfg.c ****     #define CYXDATA
  70:Generated_Source\PSoC4/cyfitter_cfg.c **** #endif
  71:Generated_Source\PSoC4/cyfitter_cfg.c **** 
  72:Generated_Source\PSoC4/cyfitter_cfg.c **** 
  73:Generated_Source\PSoC4/cyfitter_cfg.c **** CY_CFG_UNUSED
  74:Generated_Source\PSoC4/cyfitter_cfg.c **** static void CYMEMZERO(void *s, size_t n);
  75:Generated_Source\PSoC4/cyfitter_cfg.c **** CY_CFG_UNUSED
  76:Generated_Source\PSoC4/cyfitter_cfg.c **** static void CYMEMZERO(void *s, size_t n)
  77:Generated_Source\PSoC4/cyfitter_cfg.c **** {
  78:Generated_Source\PSoC4/cyfitter_cfg.c **** 	(void)memset(s, 0, n);
  79:Generated_Source\PSoC4/cyfitter_cfg.c **** }
  80:Generated_Source\PSoC4/cyfitter_cfg.c **** CY_CFG_UNUSED
  81:Generated_Source\PSoC4/cyfitter_cfg.c **** static void CYCONFIGCPY(void *dest, const void *src, size_t n);
  82:Generated_Source\PSoC4/cyfitter_cfg.c **** CY_CFG_UNUSED
  83:Generated_Source\PSoC4/cyfitter_cfg.c **** static void CYCONFIGCPY(void *dest, const void *src, size_t n)
  84:Generated_Source\PSoC4/cyfitter_cfg.c **** {
  85:Generated_Source\PSoC4/cyfitter_cfg.c **** 	(void)memcpy(dest, src, n);
  86:Generated_Source\PSoC4/cyfitter_cfg.c **** }
  87:Generated_Source\PSoC4/cyfitter_cfg.c **** CY_CFG_UNUSED
  88:Generated_Source\PSoC4/cyfitter_cfg.c **** static void CYCONFIGCPYCODE(void *dest, const void *src, size_t n);
ARM GAS  C:\Users\jupac\AppData\Local\Temp\ccEXxjja.s 			page 3


  89:Generated_Source\PSoC4/cyfitter_cfg.c **** CY_CFG_UNUSED
  90:Generated_Source\PSoC4/cyfitter_cfg.c **** static void CYCONFIGCPYCODE(void *dest, const void *src, size_t n)
  91:Generated_Source\PSoC4/cyfitter_cfg.c **** {
  92:Generated_Source\PSoC4/cyfitter_cfg.c **** 	(void)memcpy(dest, src, n);
  93:Generated_Source\PSoC4/cyfitter_cfg.c **** }
  94:Generated_Source\PSoC4/cyfitter_cfg.c **** 
  95:Generated_Source\PSoC4/cyfitter_cfg.c **** 
  96:Generated_Source\PSoC4/cyfitter_cfg.c **** 
  97:Generated_Source\PSoC4/cyfitter_cfg.c **** 
  98:Generated_Source\PSoC4/cyfitter_cfg.c **** /* Clock startup error codes                                                   */
  99:Generated_Source\PSoC4/cyfitter_cfg.c **** #define CYCLOCKSTART_NO_ERROR    0u
 100:Generated_Source\PSoC4/cyfitter_cfg.c **** #define CYCLOCKSTART_XTAL_ERROR  1u
 101:Generated_Source\PSoC4/cyfitter_cfg.c **** #define CYCLOCKSTART_32KHZ_ERROR 2u
 102:Generated_Source\PSoC4/cyfitter_cfg.c **** #define CYCLOCKSTART_PLL_ERROR   3u
 103:Generated_Source\PSoC4/cyfitter_cfg.c **** #define CYCLOCKSTART_FLL_ERROR   4u
 104:Generated_Source\PSoC4/cyfitter_cfg.c **** #define CYCLOCKSTART_WCO_ERROR   5u
 105:Generated_Source\PSoC4/cyfitter_cfg.c **** 
 106:Generated_Source\PSoC4/cyfitter_cfg.c **** 
 107:Generated_Source\PSoC4/cyfitter_cfg.c **** #ifdef CY_NEED_CYCLOCKSTARTUPERROR
 108:Generated_Source\PSoC4/cyfitter_cfg.c **** /*******************************************************************************
 109:Generated_Source\PSoC4/cyfitter_cfg.c **** * Function Name: CyClockStartupError
 110:Generated_Source\PSoC4/cyfitter_cfg.c **** ********************************************************************************
 111:Generated_Source\PSoC4/cyfitter_cfg.c **** * Summary:
 112:Generated_Source\PSoC4/cyfitter_cfg.c **** *  If an error is encountered during clock configuration (crystal startup error,
 113:Generated_Source\PSoC4/cyfitter_cfg.c **** *  PLL lock error, etc.), the system will end up here.  Unless reimplemented by
 114:Generated_Source\PSoC4/cyfitter_cfg.c **** *  the customer, this function will stop in an infinite loop.
 115:Generated_Source\PSoC4/cyfitter_cfg.c **** *
 116:Generated_Source\PSoC4/cyfitter_cfg.c **** * Parameters:
 117:Generated_Source\PSoC4/cyfitter_cfg.c **** *   void
 118:Generated_Source\PSoC4/cyfitter_cfg.c **** *
 119:Generated_Source\PSoC4/cyfitter_cfg.c **** * Return:
 120:Generated_Source\PSoC4/cyfitter_cfg.c **** *   void
 121:Generated_Source\PSoC4/cyfitter_cfg.c **** *
 122:Generated_Source\PSoC4/cyfitter_cfg.c **** *******************************************************************************/
 123:Generated_Source\PSoC4/cyfitter_cfg.c **** CY_CFG_UNUSED
 124:Generated_Source\PSoC4/cyfitter_cfg.c **** static void CyClockStartupError(uint8 errorCode);
 125:Generated_Source\PSoC4/cyfitter_cfg.c **** CY_CFG_UNUSED
 126:Generated_Source\PSoC4/cyfitter_cfg.c **** static void CyClockStartupError(uint8 errorCode)
 127:Generated_Source\PSoC4/cyfitter_cfg.c **** {
 128:Generated_Source\PSoC4/cyfitter_cfg.c ****     /* To remove the compiler warning if errorCode not used.                */
 129:Generated_Source\PSoC4/cyfitter_cfg.c ****     errorCode = errorCode;
 130:Generated_Source\PSoC4/cyfitter_cfg.c **** 
 131:Generated_Source\PSoC4/cyfitter_cfg.c ****     /* If we have a clock startup error (bad MHz crystal, PLL lock, etc.),  */
 132:Generated_Source\PSoC4/cyfitter_cfg.c ****     /* we will end up here to allow the customer to implement something to  */
 133:Generated_Source\PSoC4/cyfitter_cfg.c ****     /* deal with the clock condition.                                       */
 134:Generated_Source\PSoC4/cyfitter_cfg.c **** 
 135:Generated_Source\PSoC4/cyfitter_cfg.c **** #ifdef CY_CFG_CLOCK_STARTUP_ERROR_CALLBACK
 136:Generated_Source\PSoC4/cyfitter_cfg.c ****     CY_CFG_Clock_Startup_ErrorCallback();
 137:Generated_Source\PSoC4/cyfitter_cfg.c **** #else
 138:Generated_Source\PSoC4/cyfitter_cfg.c ****     /*  If not using CY_CFG_CLOCK_STARTUP_ERROR_CALLBACK, place your clock startup code here. */
 139:Generated_Source\PSoC4/cyfitter_cfg.c ****     /* `#START CyClockStartupError` */
 140:Generated_Source\PSoC4/cyfitter_cfg.c **** 
 141:Generated_Source\PSoC4/cyfitter_cfg.c **** 
 142:Generated_Source\PSoC4/cyfitter_cfg.c **** 
 143:Generated_Source\PSoC4/cyfitter_cfg.c ****     /* `#END` */
 144:Generated_Source\PSoC4/cyfitter_cfg.c **** 
 145:Generated_Source\PSoC4/cyfitter_cfg.c ****     while(1) {}
ARM GAS  C:\Users\jupac\AppData\Local\Temp\ccEXxjja.s 			page 4


 146:Generated_Source\PSoC4/cyfitter_cfg.c **** #endif /* CY_CFG_CLOCK_STARTUP_ERROR_CALLBACK */
 147:Generated_Source\PSoC4/cyfitter_cfg.c **** }
 148:Generated_Source\PSoC4/cyfitter_cfg.c **** #endif
 149:Generated_Source\PSoC4/cyfitter_cfg.c **** 
 150:Generated_Source\PSoC4/cyfitter_cfg.c **** #define CY_CFG_BASE_ADDR_COUNT 8u
 151:Generated_Source\PSoC4/cyfitter_cfg.c **** CYPACKED typedef struct
 152:Generated_Source\PSoC4/cyfitter_cfg.c **** {
 153:Generated_Source\PSoC4/cyfitter_cfg.c **** 	uint8 offset;
 154:Generated_Source\PSoC4/cyfitter_cfg.c **** 	uint8 value;
 155:Generated_Source\PSoC4/cyfitter_cfg.c **** } CYPACKED_ATTR cy_cfg_addrvalue_t;
 156:Generated_Source\PSoC4/cyfitter_cfg.c **** 
 157:Generated_Source\PSoC4/cyfitter_cfg.c **** 
 158:Generated_Source\PSoC4/cyfitter_cfg.c **** 
 159:Generated_Source\PSoC4/cyfitter_cfg.c **** /*******************************************************************************
 160:Generated_Source\PSoC4/cyfitter_cfg.c **** * Function Name: cfg_write_bytes32
 161:Generated_Source\PSoC4/cyfitter_cfg.c **** ********************************************************************************
 162:Generated_Source\PSoC4/cyfitter_cfg.c **** * Summary:
 163:Generated_Source\PSoC4/cyfitter_cfg.c **** *  This function is used for setting up the chip configuration areas that
 164:Generated_Source\PSoC4/cyfitter_cfg.c **** *  contain relatively sparse data.
 165:Generated_Source\PSoC4/cyfitter_cfg.c **** *
 166:Generated_Source\PSoC4/cyfitter_cfg.c **** * Parameters:
 167:Generated_Source\PSoC4/cyfitter_cfg.c **** *   void
 168:Generated_Source\PSoC4/cyfitter_cfg.c **** *
 169:Generated_Source\PSoC4/cyfitter_cfg.c **** * Return:
 170:Generated_Source\PSoC4/cyfitter_cfg.c **** *   void
 171:Generated_Source\PSoC4/cyfitter_cfg.c **** *
 172:Generated_Source\PSoC4/cyfitter_cfg.c **** *******************************************************************************/
 173:Generated_Source\PSoC4/cyfitter_cfg.c **** static void cfg_write_bytes32(const uint32 addr_table[], const cy_cfg_addrvalue_t data_table[]);
 174:Generated_Source\PSoC4/cyfitter_cfg.c **** static void cfg_write_bytes32(const uint32 addr_table[], const cy_cfg_addrvalue_t data_table[])
 175:Generated_Source\PSoC4/cyfitter_cfg.c **** {
  27              		.loc 1 175 0
  28              		.cfi_startproc
  29              		@ args = 0, pretend = 0, frame = 0
  30              		@ frame_needed = 0, uses_anonymous_args = 0
  31              	.LVL0:
  32 0000 F0B5     		push	{r4, r5, r6, r7, lr}
  33              		.cfi_def_cfa_offset 20
  34              		.cfi_offset 4, -20
  35              		.cfi_offset 5, -16
  36              		.cfi_offset 6, -12
  37              		.cfi_offset 7, -8
  38              		.cfi_offset 14, -4
  39              	.LVL1:
 176:Generated_Source\PSoC4/cyfitter_cfg.c **** 	/* For 32-bit little-endian architectures */
 177:Generated_Source\PSoC4/cyfitter_cfg.c **** 	uint32 i, j = 0u;
  40              		.loc 1 177 0
  41 0002 0025     		movs	r5, #0
 178:Generated_Source\PSoC4/cyfitter_cfg.c **** 	for (i = 0u; i < CY_CFG_BASE_ADDR_COUNT; i++)
  42              		.loc 1 178 0
  43 0004 0027     		movs	r7, #0
  44 0006 11E0     		b	.L2
  45              	.LVL2:
  46              	.L5:
  47              	.LBB2:
 179:Generated_Source\PSoC4/cyfitter_cfg.c **** 	{
 180:Generated_Source\PSoC4/cyfitter_cfg.c **** 		uint32 baseAddr = addr_table[i];
  48              		.loc 1 180 0
ARM GAS  C:\Users\jupac\AppData\Local\Temp\ccEXxjja.s 			page 5


  49 0008 BB00     		lsls	r3, r7, #2
  50 000a C658     		ldr	r6, [r0, r3]
  51              	.LVL3:
 181:Generated_Source\PSoC4/cyfitter_cfg.c **** 		uint8 count = (uint8)baseAddr;
  52              		.loc 1 181 0
  53 000c F3B2     		uxtb	r3, r6
  54              	.LVL4:
 182:Generated_Source\PSoC4/cyfitter_cfg.c **** 		baseAddr &= 0xFFFFFF00u;
  55              		.loc 1 182 0
  56 000e FF22     		movs	r2, #255
  57 0010 9643     		bics	r6, r2
  58              	.LVL5:
 183:Generated_Source\PSoC4/cyfitter_cfg.c **** 		while (count != 0u)
  59              		.loc 1 183 0
  60 0012 08E0     		b	.L3
  61              	.L4:
 184:Generated_Source\PSoC4/cyfitter_cfg.c **** 		{
 185:Generated_Source\PSoC4/cyfitter_cfg.c **** 			CY_SET_REG8((void *)(baseAddr + data_table[j].offset), data_table[j].value);
  62              		.loc 1 185 0
  63 0014 6A00     		lsls	r2, r5, #1
  64 0016 8A18     		adds	r2, r1, r2
  65 0018 1478     		ldrb	r4, [r2]
  66 001a A419     		adds	r4, r4, r6
  67 001c 5278     		ldrb	r2, [r2, #1]
  68 001e 2270     		strb	r2, [r4]
 186:Generated_Source\PSoC4/cyfitter_cfg.c **** 			j++;
  69              		.loc 1 186 0
  70 0020 0135     		adds	r5, r5, #1
  71              	.LVL6:
 187:Generated_Source\PSoC4/cyfitter_cfg.c **** 			count--;
  72              		.loc 1 187 0
  73 0022 013B     		subs	r3, r3, #1
  74              	.LVL7:
  75 0024 DBB2     		uxtb	r3, r3
  76              	.LVL8:
  77              	.L3:
 183:Generated_Source\PSoC4/cyfitter_cfg.c **** 		{
  78              		.loc 1 183 0
  79 0026 002B     		cmp	r3, #0
  80 0028 F4D1     		bne	.L4
  81              	.LBE2:
 178:Generated_Source\PSoC4/cyfitter_cfg.c **** 	{
  82              		.loc 1 178 0 discriminator 2
  83 002a 0137     		adds	r7, r7, #1
  84              	.LVL9:
  85              	.L2:
 178:Generated_Source\PSoC4/cyfitter_cfg.c **** 	{
  86              		.loc 1 178 0 is_stmt 0 discriminator 1
  87 002c 072F     		cmp	r7, #7
  88 002e EBD9     		bls	.L5
 188:Generated_Source\PSoC4/cyfitter_cfg.c **** 		}
 189:Generated_Source\PSoC4/cyfitter_cfg.c **** 	}
 190:Generated_Source\PSoC4/cyfitter_cfg.c **** }
  89              		.loc 1 190 0 is_stmt 1
  90              		@ sp needed
  91              	.LVL10:
  92              	.LVL11:
ARM GAS  C:\Users\jupac\AppData\Local\Temp\ccEXxjja.s 			page 6


  93 0030 F0BD     		pop	{r4, r5, r6, r7, pc}
  94              		.cfi_endproc
  95              	.LFE5:
  96              		.size	cfg_write_bytes32, .-cfg_write_bytes32
  97 0032 C046     		.section	.text.AnalogSetDefault,"ax",%progbits
  98              		.align	2
  99              		.code	16
 100              		.thumb_func
 101              		.type	AnalogSetDefault, %function
 102              	AnalogSetDefault:
 103              	.LFB7:
 191:Generated_Source\PSoC4/cyfitter_cfg.c **** 
 192:Generated_Source\PSoC4/cyfitter_cfg.c **** 
 193:Generated_Source\PSoC4/cyfitter_cfg.c **** /*******************************************************************************
 194:Generated_Source\PSoC4/cyfitter_cfg.c **** * Function Name: ClockSetup
 195:Generated_Source\PSoC4/cyfitter_cfg.c **** ********************************************************************************
 196:Generated_Source\PSoC4/cyfitter_cfg.c **** *
 197:Generated_Source\PSoC4/cyfitter_cfg.c **** * Summary:
 198:Generated_Source\PSoC4/cyfitter_cfg.c **** *   Performs the initialization of all of the clocks in the device based on the
 199:Generated_Source\PSoC4/cyfitter_cfg.c **** *   settings in the Clock tab of the DWR.  This includes enabling the requested
 200:Generated_Source\PSoC4/cyfitter_cfg.c **** *   clocks and setting the necessary dividers to produce the desired frequency. 
 201:Generated_Source\PSoC4/cyfitter_cfg.c **** *
 202:Generated_Source\PSoC4/cyfitter_cfg.c **** * Parameters:
 203:Generated_Source\PSoC4/cyfitter_cfg.c **** *   void
 204:Generated_Source\PSoC4/cyfitter_cfg.c **** *
 205:Generated_Source\PSoC4/cyfitter_cfg.c **** * Return:
 206:Generated_Source\PSoC4/cyfitter_cfg.c **** *   void
 207:Generated_Source\PSoC4/cyfitter_cfg.c **** *
 208:Generated_Source\PSoC4/cyfitter_cfg.c **** *******************************************************************************/
 209:Generated_Source\PSoC4/cyfitter_cfg.c **** static void ClockSetup(void);
 210:Generated_Source\PSoC4/cyfitter_cfg.c **** CY_CFG_SECTION
 211:Generated_Source\PSoC4/cyfitter_cfg.c **** static void ClockSetup(void)
 212:Generated_Source\PSoC4/cyfitter_cfg.c **** {
 213:Generated_Source\PSoC4/cyfitter_cfg.c **** 
 214:Generated_Source\PSoC4/cyfitter_cfg.c **** 	/* Set Flash Cycles based on max possible frequency in case a glitch occurs during ClockSetup(). *
 215:Generated_Source\PSoC4/cyfitter_cfg.c **** 	CY_SET_REG32((void CYXDATA *)(CYREG_CPUSS_FLASH_CTL), (0x0012u));
 216:Generated_Source\PSoC4/cyfitter_cfg.c **** 
 217:Generated_Source\PSoC4/cyfitter_cfg.c **** 	/* Start the WCO */
 218:Generated_Source\PSoC4/cyfitter_cfg.c **** 	CySysClkWcoStart();
 219:Generated_Source\PSoC4/cyfitter_cfg.c **** 	CyDelayCycles(12000000u); /* WCO may take up to 500ms to start */
 220:Generated_Source\PSoC4/cyfitter_cfg.c **** 	(void)CySysClkWcoSetPowerMode(CY_SYS_CLK_WCO_LPM);    /* Switch to the low power mode */
 221:Generated_Source\PSoC4/cyfitter_cfg.c **** 
 222:Generated_Source\PSoC4/cyfitter_cfg.c **** 	/* Setup and trim IMO based on desired frequency. */
 223:Generated_Source\PSoC4/cyfitter_cfg.c **** 	CySysClkWriteImoFreq(48u);
 224:Generated_Source\PSoC4/cyfitter_cfg.c **** 	/* CYDEV_CLK_ILO_CONFIG Starting address: CYDEV_CLK_ILO_CONFIG */
 225:Generated_Source\PSoC4/cyfitter_cfg.c **** 	CY_SET_REG32((void *)(CYREG_CLK_ILO_CONFIG), 0x80000006u);
 226:Generated_Source\PSoC4/cyfitter_cfg.c **** 
 227:Generated_Source\PSoC4/cyfitter_cfg.c **** 	/* CYDEV_WDT_CONFIG Starting address: CYDEV_WDT_CONFIG */
 228:Generated_Source\PSoC4/cyfitter_cfg.c **** 	CY_SET_REG32((void *)(CYREG_WDT_CONFIG), 0x40000000u);
 229:Generated_Source\PSoC4/cyfitter_cfg.c **** 
 230:Generated_Source\PSoC4/cyfitter_cfg.c **** 
 231:Generated_Source\PSoC4/cyfitter_cfg.c **** 	/* Enable fast start mode for XO */
 232:Generated_Source\PSoC4/cyfitter_cfg.c **** 	CY_SET_REG32((void*)CYREG_BLE_BLERD_BB_XO, CY_GET_REG32((void*)CYREG_BLE_BLERD_BB_XO) | (uint32)0x
 233:Generated_Source\PSoC4/cyfitter_cfg.c **** 	CY_SET_REG32((void *)(CYREG_BLE_BLERD_BB_XO_CAPTRIM), 0x00003E2Du);
 234:Generated_Source\PSoC4/cyfitter_cfg.c **** 	/*Set XTAL(ECO) divider*/
 235:Generated_Source\PSoC4/cyfitter_cfg.c **** 	CY_SET_REG32((void *)(CYREG_BLE_BLESS_XTAL_CLK_DIV_CONFIG), 0x00000000u);
 236:Generated_Source\PSoC4/cyfitter_cfg.c **** 	/* Disable Crystal Stable Interrupt before enabling ECO */
ARM GAS  C:\Users\jupac\AppData\Local\Temp\ccEXxjja.s 			page 7


 237:Generated_Source\PSoC4/cyfitter_cfg.c **** 	CY_SET_REG32((void*)CYREG_BLE_BLESS_LL_DSM_CTRL, CY_GET_REG32((void*)CYREG_BLE_BLESS_LL_DSM_CTRL) 
 238:Generated_Source\PSoC4/cyfitter_cfg.c **** 	/* Start the ECO and do not check status since it is not needed for HFCLK */
 239:Generated_Source\PSoC4/cyfitter_cfg.c **** 	(void)CySysClkEcoStart(2000u);
 240:Generated_Source\PSoC4/cyfitter_cfg.c **** 	CyDelayUs(1500u); /* Wait to stabilize */
 241:Generated_Source\PSoC4/cyfitter_cfg.c **** 
 242:Generated_Source\PSoC4/cyfitter_cfg.c **** 	/* Setup phase aligned clocks */
 243:Generated_Source\PSoC4/cyfitter_cfg.c **** 	CY_SET_REG32((void *)CYREG_PERI_DIV_16_CTL0, 0x00027000u);
 244:Generated_Source\PSoC4/cyfitter_cfg.c **** 	CY_SET_REG32((void *)CYREG_PERI_DIV_CMD, 0x8000FF40u);
 245:Generated_Source\PSoC4/cyfitter_cfg.c **** 
 246:Generated_Source\PSoC4/cyfitter_cfg.c **** 	/* CYDEV_CLK_IMO_CONFIG Starting address: CYDEV_CLK_IMO_CONFIG */
 247:Generated_Source\PSoC4/cyfitter_cfg.c **** 	CY_SET_REG32((void *)(CYREG_CLK_IMO_CONFIG), 0x80000000u);
 248:Generated_Source\PSoC4/cyfitter_cfg.c **** 
 249:Generated_Source\PSoC4/cyfitter_cfg.c **** 	/* CYDEV_CLK_SELECT Starting address: CYDEV_CLK_SELECT */
 250:Generated_Source\PSoC4/cyfitter_cfg.c **** 	CY_SET_REG32((void *)(CYREG_CLK_SELECT), 0x00040000u);
 251:Generated_Source\PSoC4/cyfitter_cfg.c **** 
 252:Generated_Source\PSoC4/cyfitter_cfg.c **** 	/* CYDEV_PERI_PCLK_CTL11 Starting address: CYDEV_PERI_PCLK_CTL11 */
 253:Generated_Source\PSoC4/cyfitter_cfg.c **** 	CY_SET_REG32((void *)(CYREG_PERI_PCLK_CTL11), 0x00000040u);
 254:Generated_Source\PSoC4/cyfitter_cfg.c **** 
 255:Generated_Source\PSoC4/cyfitter_cfg.c **** 	(void)CyIntSetVector(8u, &CySysWdtIsr);
 256:Generated_Source\PSoC4/cyfitter_cfg.c **** 	CyIntEnable(8u);
 257:Generated_Source\PSoC4/cyfitter_cfg.c **** 	CY_SET_REG32((void *)(CYREG_WDT_CONFIG), 0x40000000u);
 258:Generated_Source\PSoC4/cyfitter_cfg.c **** }
 259:Generated_Source\PSoC4/cyfitter_cfg.c **** 
 260:Generated_Source\PSoC4/cyfitter_cfg.c **** 
 261:Generated_Source\PSoC4/cyfitter_cfg.c **** /* Analog API Functions */
 262:Generated_Source\PSoC4/cyfitter_cfg.c **** 
 263:Generated_Source\PSoC4/cyfitter_cfg.c **** 
 264:Generated_Source\PSoC4/cyfitter_cfg.c **** /*******************************************************************************
 265:Generated_Source\PSoC4/cyfitter_cfg.c **** * Function Name: AnalogSetDefault
 266:Generated_Source\PSoC4/cyfitter_cfg.c **** ********************************************************************************
 267:Generated_Source\PSoC4/cyfitter_cfg.c **** *
 268:Generated_Source\PSoC4/cyfitter_cfg.c **** * Summary:
 269:Generated_Source\PSoC4/cyfitter_cfg.c **** *  Sets up the analog portions of the chip to default values based on chip
 270:Generated_Source\PSoC4/cyfitter_cfg.c **** *  configuration options from the project.
 271:Generated_Source\PSoC4/cyfitter_cfg.c **** *
 272:Generated_Source\PSoC4/cyfitter_cfg.c **** * Parameters:
 273:Generated_Source\PSoC4/cyfitter_cfg.c **** *  void
 274:Generated_Source\PSoC4/cyfitter_cfg.c **** *
 275:Generated_Source\PSoC4/cyfitter_cfg.c **** * Return:
 276:Generated_Source\PSoC4/cyfitter_cfg.c **** *  void
 277:Generated_Source\PSoC4/cyfitter_cfg.c **** *
 278:Generated_Source\PSoC4/cyfitter_cfg.c **** *******************************************************************************/
 279:Generated_Source\PSoC4/cyfitter_cfg.c **** static void AnalogSetDefault(void);
 280:Generated_Source\PSoC4/cyfitter_cfg.c **** static void AnalogSetDefault(void)
 281:Generated_Source\PSoC4/cyfitter_cfg.c **** {
 104              		.loc 1 281 0
 105              		.cfi_startproc
 106              		@ args = 0, pretend = 0, frame = 0
 107              		@ frame_needed = 0, uses_anonymous_args = 0
 108              		@ link register save eliminated.
 282:Generated_Source\PSoC4/cyfitter_cfg.c **** 	CY_SET_XTND_REG32((void CYFAR *)CYREG_CTBM0_DFT_CTRL, 0x00000003u);
 109              		.loc 1 282 0
 110 0000 0323     		movs	r3, #3
 111 0002 044A     		ldr	r2, .L7
 112 0004 1360     		str	r3, [r2]
 283:Generated_Source\PSoC4/cyfitter_cfg.c **** 	CY_SET_XTND_REG32((void CYFAR *)CYREG_CTBM1_DFT_CTRL, 0x00000003u);
 113              		.loc 1 283 0
ARM GAS  C:\Users\jupac\AppData\Local\Temp\ccEXxjja.s 			page 8


 114 0006 044A     		ldr	r2, .L7+4
 115 0008 1360     		str	r3, [r2]
 284:Generated_Source\PSoC4/cyfitter_cfg.c **** 	CY_SET_XTND_REG32((void CYFAR *)CYREG_PASS_DSAB_DSAB_CTRL, 0x00000000u);
 116              		.loc 1 284 0
 117 000a 0022     		movs	r2, #0
 118 000c 034B     		ldr	r3, .L7+8
 119 000e 1A60     		str	r2, [r3]
 285:Generated_Source\PSoC4/cyfitter_cfg.c **** }
 120              		.loc 1 285 0
 121              		@ sp needed
 122 0010 7047     		bx	lr
 123              	.L8:
 124 0012 C046     		.align	2
 125              	.L7:
 126 0014 30003040 		.word	1076887600
 127 0018 30003140 		.word	1076953136
 128 001c 000E3F40 		.word	1077874176
 129              		.cfi_endproc
 130              	.LFE7:
 131              		.size	AnalogSetDefault, .-AnalogSetDefault
 132              		.section	.text.CYMEMZERO,"ax",%progbits
 133              		.align	2
 134              		.code	16
 135              		.thumb_func
 136              		.type	CYMEMZERO, %function
 137              	CYMEMZERO:
 138              	.LFB2:
  77:Generated_Source\PSoC4/cyfitter_cfg.c **** 	(void)memset(s, 0, n);
 139              		.loc 1 77 0
 140              		.cfi_startproc
 141              		@ args = 0, pretend = 0, frame = 0
 142              		@ frame_needed = 0, uses_anonymous_args = 0
 143              	.LVL12:
 144 0000 10B5     		push	{r4, lr}
 145              		.cfi_def_cfa_offset 8
 146              		.cfi_offset 4, -8
 147              		.cfi_offset 14, -4
 148 0002 0A00     		movs	r2, r1
  78:Generated_Source\PSoC4/cyfitter_cfg.c **** }
 149              		.loc 1 78 0
 150 0004 0021     		movs	r1, #0
 151              	.LVL13:
 152 0006 FFF7FEFF 		bl	memset
 153              	.LVL14:
  79:Generated_Source\PSoC4/cyfitter_cfg.c **** CY_CFG_UNUSED
 154              		.loc 1 79 0
 155              		@ sp needed
 156 000a 10BD     		pop	{r4, pc}
 157              		.cfi_endproc
 158              	.LFE2:
 159              		.size	CYMEMZERO, .-CYMEMZERO
 160              		.section	.text.CYCONFIGCPYCODE,"ax",%progbits
 161              		.align	2
 162              		.code	16
 163              		.thumb_func
 164              		.type	CYCONFIGCPYCODE, %function
 165              	CYCONFIGCPYCODE:
ARM GAS  C:\Users\jupac\AppData\Local\Temp\ccEXxjja.s 			page 9


 166              	.LFB4:
  91:Generated_Source\PSoC4/cyfitter_cfg.c **** 	(void)memcpy(dest, src, n);
 167              		.loc 1 91 0
 168              		.cfi_startproc
 169              		@ args = 0, pretend = 0, frame = 0
 170              		@ frame_needed = 0, uses_anonymous_args = 0
 171              	.LVL15:
 172 0000 10B5     		push	{r4, lr}
 173              		.cfi_def_cfa_offset 8
 174              		.cfi_offset 4, -8
 175              		.cfi_offset 14, -4
  92:Generated_Source\PSoC4/cyfitter_cfg.c **** }
 176              		.loc 1 92 0
 177 0002 FFF7FEFF 		bl	memcpy
 178              	.LVL16:
  93:Generated_Source\PSoC4/cyfitter_cfg.c **** 
 179              		.loc 1 93 0
 180              		@ sp needed
 181 0006 10BD     		pop	{r4, pc}
 182              		.cfi_endproc
 183              	.LFE4:
 184              		.size	CYCONFIGCPYCODE, .-CYCONFIGCPYCODE
 185              		.section	.psocinit,"ax",%progbits
 186              		.align	2
 187              		.code	16
 188              		.thumb_func
 189              		.type	ClockSetup, %function
 190              	ClockSetup:
 191              	.LFB6:
 212:Generated_Source\PSoC4/cyfitter_cfg.c **** 
 192              		.loc 1 212 0
 193              		.cfi_startproc
 194              		@ args = 0, pretend = 0, frame = 0
 195              		@ frame_needed = 0, uses_anonymous_args = 0
 196 0000 70B5     		push	{r4, r5, r6, lr}
 197              		.cfi_def_cfa_offset 16
 198              		.cfi_offset 4, -16
 199              		.cfi_offset 5, -12
 200              		.cfi_offset 6, -8
 201              		.cfi_offset 14, -4
 215:Generated_Source\PSoC4/cyfitter_cfg.c **** 
 202              		.loc 1 215 0
 203 0002 1222     		movs	r2, #18
 204 0004 224B     		ldr	r3, .L12
 205 0006 1A60     		str	r2, [r3]
 218:Generated_Source\PSoC4/cyfitter_cfg.c **** 	CyDelayCycles(12000000u); /* WCO may take up to 500ms to start */
 206              		.loc 1 218 0
 207 0008 FFF7FEFF 		bl	CySysClkWcoStart
 208              	.LVL17:
 219:Generated_Source\PSoC4/cyfitter_cfg.c **** 	(void)CySysClkWcoSetPowerMode(CY_SYS_CLK_WCO_LPM);    /* Switch to the low power mode */
 209              		.loc 1 219 0
 210 000c 2148     		ldr	r0, .L12+4
 211 000e FFF7FEFF 		bl	CyDelayCycles
 212              	.LVL18:
 220:Generated_Source\PSoC4/cyfitter_cfg.c **** 
 213              		.loc 1 220 0
 214 0012 0120     		movs	r0, #1
ARM GAS  C:\Users\jupac\AppData\Local\Temp\ccEXxjja.s 			page 10


 215 0014 FFF7FEFF 		bl	CySysClkWcoSetPowerMode
 216              	.LVL19:
 223:Generated_Source\PSoC4/cyfitter_cfg.c **** 	/* CYDEV_CLK_ILO_CONFIG Starting address: CYDEV_CLK_ILO_CONFIG */
 217              		.loc 1 223 0
 218 0018 3020     		movs	r0, #48
 219 001a FFF7FEFF 		bl	CySysClkWriteImoFreq
 220              	.LVL20:
 225:Generated_Source\PSoC4/cyfitter_cfg.c **** 
 221              		.loc 1 225 0
 222 001e 1E4A     		ldr	r2, .L12+8
 223 0020 1E4B     		ldr	r3, .L12+12
 224 0022 1A60     		str	r2, [r3]
 228:Generated_Source\PSoC4/cyfitter_cfg.c **** 
 225              		.loc 1 228 0
 226 0024 1E4C     		ldr	r4, .L12+16
 227 0026 8025     		movs	r5, #128
 228 0028 ED05     		lsls	r5, r5, #23
 229 002a 2560     		str	r5, [r4]
 232:Generated_Source\PSoC4/cyfitter_cfg.c **** 	CY_SET_REG32((void *)(CYREG_BLE_BLERD_BB_XO_CAPTRIM), 0x00003E2Du);
 230              		.loc 1 232 0
 231 002c 1D4A     		ldr	r2, .L12+20
 232 002e 1168     		ldr	r1, [r2]
 233 0030 0223     		movs	r3, #2
 234 0032 0B43     		orrs	r3, r1
 235 0034 1360     		str	r3, [r2]
 233:Generated_Source\PSoC4/cyfitter_cfg.c **** 	/*Set XTAL(ECO) divider*/
 236              		.loc 1 233 0
 237 0036 1C4A     		ldr	r2, .L12+24
 238 0038 1C4B     		ldr	r3, .L12+28
 239 003a 1A60     		str	r2, [r3]
 235:Generated_Source\PSoC4/cyfitter_cfg.c **** 	/* Disable Crystal Stable Interrupt before enabling ECO */
 240              		.loc 1 235 0
 241 003c 0022     		movs	r2, #0
 242 003e 1C4B     		ldr	r3, .L12+32
 243 0040 1A60     		str	r2, [r3]
 237:Generated_Source\PSoC4/cyfitter_cfg.c **** 	/* Start the ECO and do not check status since it is not needed for HFCLK */
 244              		.loc 1 237 0
 245 0042 1C4A     		ldr	r2, .L12+36
 246 0044 1368     		ldr	r3, [r2]
 247 0046 0821     		movs	r1, #8
 248 0048 8B43     		bics	r3, r1
 249 004a 1360     		str	r3, [r2]
 239:Generated_Source\PSoC4/cyfitter_cfg.c **** 	CyDelayUs(1500u); /* Wait to stabilize */
 250              		.loc 1 239 0
 251 004c FA20     		movs	r0, #250
 252 004e C000     		lsls	r0, r0, #3
 253 0050 FFF7FEFF 		bl	CySysClkEcoStart
 254              	.LVL21:
 240:Generated_Source\PSoC4/cyfitter_cfg.c **** 
 255              		.loc 1 240 0
 256 0054 1848     		ldr	r0, .L12+40
 257 0056 FFF7FEFF 		bl	CyDelayUs
 258              	.LVL22:
 243:Generated_Source\PSoC4/cyfitter_cfg.c **** 	CY_SET_REG32((void *)CYREG_PERI_DIV_CMD, 0x8000FF40u);
 259              		.loc 1 243 0
 260 005a 9C22     		movs	r2, #156
 261 005c 9202     		lsls	r2, r2, #10
ARM GAS  C:\Users\jupac\AppData\Local\Temp\ccEXxjja.s 			page 11


 262 005e 174B     		ldr	r3, .L12+44
 263 0060 1A60     		str	r2, [r3]
 244:Generated_Source\PSoC4/cyfitter_cfg.c **** 
 264              		.loc 1 244 0
 265 0062 174A     		ldr	r2, .L12+48
 266 0064 174B     		ldr	r3, .L12+52
 267 0066 1A60     		str	r2, [r3]
 247:Generated_Source\PSoC4/cyfitter_cfg.c **** 
 268              		.loc 1 247 0
 269 0068 8022     		movs	r2, #128
 270 006a 1206     		lsls	r2, r2, #24
 271 006c 164B     		ldr	r3, .L12+56
 272 006e 1A60     		str	r2, [r3]
 250:Generated_Source\PSoC4/cyfitter_cfg.c **** 
 273              		.loc 1 250 0
 274 0070 8022     		movs	r2, #128
 275 0072 D202     		lsls	r2, r2, #11
 276 0074 154B     		ldr	r3, .L12+60
 277 0076 1A60     		str	r2, [r3]
 253:Generated_Source\PSoC4/cyfitter_cfg.c **** 
 278              		.loc 1 253 0
 279 0078 4022     		movs	r2, #64
 280 007a 154B     		ldr	r3, .L12+64
 281 007c 1A60     		str	r2, [r3]
 255:Generated_Source\PSoC4/cyfitter_cfg.c **** 	CyIntEnable(8u);
 282              		.loc 1 255 0
 283 007e 1549     		ldr	r1, .L12+68
 284 0080 0820     		movs	r0, #8
 285 0082 FFF7FEFF 		bl	CyIntSetVector
 286              	.LVL23:
 256:Generated_Source\PSoC4/cyfitter_cfg.c **** 	CY_SET_REG32((void *)(CYREG_WDT_CONFIG), 0x40000000u);
 287              		.loc 1 256 0
 288 0086 0820     		movs	r0, #8
 289 0088 FFF7FEFF 		bl	CyIntEnable
 290              	.LVL24:
 257:Generated_Source\PSoC4/cyfitter_cfg.c **** }
 291              		.loc 1 257 0
 292 008c 2560     		str	r5, [r4]
 258:Generated_Source\PSoC4/cyfitter_cfg.c **** 
 293              		.loc 1 258 0
 294              		@ sp needed
 295 008e 70BD     		pop	{r4, r5, r6, pc}
 296              	.L13:
 297              		.align	2
 298              	.L12:
 299 0090 30001040 		.word	1074790448
 300 0094 001BB700 		.word	12000000
 301 0098 06000080 		.word	-2147483642
 302 009c 04010B40 		.word	1074462980
 303 00a0 0C020B40 		.word	1074463244
 304 00a4 78002E40 		.word	1076756600
 305 00a8 2D3E0000 		.word	15917
 306 00ac 7C002E40 		.word	1076756604
 307 00b0 64F02E40 		.word	1076818020
 308 00b4 6CF02E40 		.word	1076818028
 309 00b8 DC050000 		.word	1500
 310 00bc 00030140 		.word	1073808128
ARM GAS  C:\Users\jupac\AppData\Local\Temp\ccEXxjja.s 			page 12


 311 00c0 40FF0080 		.word	-2147418304
 312 00c4 00000140 		.word	1073807360
 313 00c8 08010B40 		.word	1074462984
 314 00cc 00010B40 		.word	1074462976
 315 00d0 2C010140 		.word	1073807660
 316 00d4 00000000 		.word	CySysWdtIsr
 317              		.cfi_endproc
 318              	.LFE6:
 319              		.size	ClockSetup, .-ClockSetup
 320              		.align	2
 321              		.global	cyfitter_cfg
 322              		.code	16
 323              		.thumb_func
 324              		.type	cyfitter_cfg, %function
 325              	cyfitter_cfg:
 326              	.LFB8:
 286:Generated_Source\PSoC4/cyfitter_cfg.c **** 
 287:Generated_Source\PSoC4/cyfitter_cfg.c **** 
 288:Generated_Source\PSoC4/cyfitter_cfg.c **** 
 289:Generated_Source\PSoC4/cyfitter_cfg.c **** 
 290:Generated_Source\PSoC4/cyfitter_cfg.c **** /*******************************************************************************
 291:Generated_Source\PSoC4/cyfitter_cfg.c **** * Function Name: cyfitter_cfg
 292:Generated_Source\PSoC4/cyfitter_cfg.c **** ********************************************************************************
 293:Generated_Source\PSoC4/cyfitter_cfg.c **** * Summary:
 294:Generated_Source\PSoC4/cyfitter_cfg.c **** *  This function is called by the start-up code for the selected device. It
 295:Generated_Source\PSoC4/cyfitter_cfg.c **** *  performs all of the necessary device configuration based on the design
 296:Generated_Source\PSoC4/cyfitter_cfg.c **** *  settings.  This includes settings from the Design Wide Resources (DWR) such
 297:Generated_Source\PSoC4/cyfitter_cfg.c **** *  as Clocks and Pins as well as any component configuration that is necessary.
 298:Generated_Source\PSoC4/cyfitter_cfg.c **** *
 299:Generated_Source\PSoC4/cyfitter_cfg.c **** * Parameters:
 300:Generated_Source\PSoC4/cyfitter_cfg.c **** *   void
 301:Generated_Source\PSoC4/cyfitter_cfg.c **** *
 302:Generated_Source\PSoC4/cyfitter_cfg.c **** * Return:
 303:Generated_Source\PSoC4/cyfitter_cfg.c **** *   void
 304:Generated_Source\PSoC4/cyfitter_cfg.c **** *
 305:Generated_Source\PSoC4/cyfitter_cfg.c **** *******************************************************************************/
 306:Generated_Source\PSoC4/cyfitter_cfg.c **** CY_CFG_SECTION
 307:Generated_Source\PSoC4/cyfitter_cfg.c **** void cyfitter_cfg(void)
 308:Generated_Source\PSoC4/cyfitter_cfg.c **** {
 327              		.loc 1 308 0
 328              		.cfi_startproc
 329              		@ args = 0, pretend = 0, frame = 0
 330              		@ frame_needed = 0, uses_anonymous_args = 0
 331 00d8 70B5     		push	{r4, r5, r6, lr}
 332              		.cfi_def_cfa_offset 16
 333              		.cfi_offset 4, -16
 334              		.cfi_offset 5, -12
 335              		.cfi_offset 6, -8
 336              		.cfi_offset 14, -4
 309:Generated_Source\PSoC4/cyfitter_cfg.c **** 	/* Disable interrupts by default. Let user enable if/when they want. */
 310:Generated_Source\PSoC4/cyfitter_cfg.c **** 	CyGlobalIntDisable;
 337              		.loc 1 310 0
 338              		.syntax divided
 339              	@ 310 "Generated_Source\PSoC4\cyfitter_cfg.c" 1
 340 00da 72B6     		CPSID   i
 341              	@ 0 "" 2
 311:Generated_Source\PSoC4/cyfitter_cfg.c **** 
ARM GAS  C:\Users\jupac\AppData\Local\Temp\ccEXxjja.s 			page 13


 312:Generated_Source\PSoC4/cyfitter_cfg.c **** 	CY_SET_REG32((void *)(CYREG_BLE_BLESS_LL_DSM_CTRL), 0x00000000u);
 342              		.loc 1 312 0
 343              		.thumb
 344              		.syntax unified
 345 00dc 0022     		movs	r2, #0
 346 00de 3F4B     		ldr	r3, .L19
 347 00e0 1A60     		str	r2, [r3]
 313:Generated_Source\PSoC4/cyfitter_cfg.c **** 
 314:Generated_Source\PSoC4/cyfitter_cfg.c **** 	/* Enable the clock in the interrupt controller for the routed interrupts */
 315:Generated_Source\PSoC4/cyfitter_cfg.c **** 	CY_SET_REG8((void *)CYREG_UDB_UDBIF_INT_CLK_CTL, 0x01u);
 348              		.loc 1 315 0
 349 00e2 0132     		adds	r2, r2, #1
 350 00e4 3E4B     		ldr	r3, .L19+4
 351 00e6 1A70     		strb	r2, [r3]
 352              	.LVL25:
 353              	.LBB3:
 316:Generated_Source\PSoC4/cyfitter_cfg.c **** 	{
 317:Generated_Source\PSoC4/cyfitter_cfg.c **** 		static const uint32 CYCODE cy_cfg_addr_table[] = {
 318:Generated_Source\PSoC4/cyfitter_cfg.c **** 			0x400F0003u, /* Base address: 0x400F0000 Count: 3 */
 319:Generated_Source\PSoC4/cyfitter_cfg.c **** 			0x400F3014u, /* Base address: 0x400F3000 Count: 20 */
 320:Generated_Source\PSoC4/cyfitter_cfg.c **** 			0x400F3140u, /* Base address: 0x400F3100 Count: 64 */
 321:Generated_Source\PSoC4/cyfitter_cfg.c **** 			0x400F3269u, /* Base address: 0x400F3200 Count: 105 */
 322:Generated_Source\PSoC4/cyfitter_cfg.c **** 			0x400F334Du, /* Base address: 0x400F3300 Count: 77 */
 323:Generated_Source\PSoC4/cyfitter_cfg.c **** 			0x400F4003u, /* Base address: 0x400F4000 Count: 3 */
 324:Generated_Source\PSoC4/cyfitter_cfg.c **** 			0x400F410Au, /* Base address: 0x400F4100 Count: 10 */
 325:Generated_Source\PSoC4/cyfitter_cfg.c **** 			0x400F6002u, /* Base address: 0x400F6000 Count: 2 */
 326:Generated_Source\PSoC4/cyfitter_cfg.c **** 		};
 327:Generated_Source\PSoC4/cyfitter_cfg.c **** 
 328:Generated_Source\PSoC4/cyfitter_cfg.c **** 		static const cy_cfg_addrvalue_t CYCODE cy_cfg_data_table[] = {
 329:Generated_Source\PSoC4/cyfitter_cfg.c **** 			{0x80u, 0x38u},
 330:Generated_Source\PSoC4/cyfitter_cfg.c **** 			{0x81u, 0x72u},
 331:Generated_Source\PSoC4/cyfitter_cfg.c **** 			{0x82u, 0x0Fu},
 332:Generated_Source\PSoC4/cyfitter_cfg.c **** 			{0x01u, 0x01u},
 333:Generated_Source\PSoC4/cyfitter_cfg.c **** 			{0x02u, 0x02u},
 334:Generated_Source\PSoC4/cyfitter_cfg.c **** 			{0x04u, 0x08u},
 335:Generated_Source\PSoC4/cyfitter_cfg.c **** 			{0x0Au, 0x02u},
 336:Generated_Source\PSoC4/cyfitter_cfg.c **** 			{0x12u, 0x01u},
 337:Generated_Source\PSoC4/cyfitter_cfg.c **** 			{0x1Au, 0x01u},
 338:Generated_Source\PSoC4/cyfitter_cfg.c **** 			{0x2Au, 0x04u},
 339:Generated_Source\PSoC4/cyfitter_cfg.c **** 			{0x30u, 0x04u},
 340:Generated_Source\PSoC4/cyfitter_cfg.c **** 			{0x31u, 0x01u},
 341:Generated_Source\PSoC4/cyfitter_cfg.c **** 			{0x32u, 0x08u},
 342:Generated_Source\PSoC4/cyfitter_cfg.c **** 			{0x34u, 0x02u},
 343:Generated_Source\PSoC4/cyfitter_cfg.c **** 			{0x36u, 0x01u},
 344:Generated_Source\PSoC4/cyfitter_cfg.c **** 			{0x3Eu, 0x54u},
 345:Generated_Source\PSoC4/cyfitter_cfg.c **** 			{0x3Fu, 0x01u},
 346:Generated_Source\PSoC4/cyfitter_cfg.c **** 			{0x54u, 0x18u},
 347:Generated_Source\PSoC4/cyfitter_cfg.c **** 			{0x56u, 0x04u},
 348:Generated_Source\PSoC4/cyfitter_cfg.c **** 			{0x58u, 0x04u},
 349:Generated_Source\PSoC4/cyfitter_cfg.c **** 			{0x59u, 0x04u},
 350:Generated_Source\PSoC4/cyfitter_cfg.c **** 			{0x5Bu, 0x04u},
 351:Generated_Source\PSoC4/cyfitter_cfg.c **** 			{0x5Fu, 0x01u},
 352:Generated_Source\PSoC4/cyfitter_cfg.c **** 			{0x00u, 0x08u},
 353:Generated_Source\PSoC4/cyfitter_cfg.c **** 			{0x02u, 0x80u},
 354:Generated_Source\PSoC4/cyfitter_cfg.c **** 			{0x03u, 0x08u},
 355:Generated_Source\PSoC4/cyfitter_cfg.c **** 			{0x04u, 0x80u},
 356:Generated_Source\PSoC4/cyfitter_cfg.c **** 			{0x06u, 0xA0u},
ARM GAS  C:\Users\jupac\AppData\Local\Temp\ccEXxjja.s 			page 14


 357:Generated_Source\PSoC4/cyfitter_cfg.c **** 			{0x07u, 0x04u},
 358:Generated_Source\PSoC4/cyfitter_cfg.c **** 			{0x09u, 0x02u},
 359:Generated_Source\PSoC4/cyfitter_cfg.c **** 			{0x0Au, 0x08u},
 360:Generated_Source\PSoC4/cyfitter_cfg.c **** 			{0x0Bu, 0x08u},
 361:Generated_Source\PSoC4/cyfitter_cfg.c **** 			{0x0Du, 0x20u},
 362:Generated_Source\PSoC4/cyfitter_cfg.c **** 			{0x0Eu, 0x22u},
 363:Generated_Source\PSoC4/cyfitter_cfg.c **** 			{0x10u, 0x08u},
 364:Generated_Source\PSoC4/cyfitter_cfg.c **** 			{0x16u, 0x01u},
 365:Generated_Source\PSoC4/cyfitter_cfg.c **** 			{0x17u, 0x2Au},
 366:Generated_Source\PSoC4/cyfitter_cfg.c **** 			{0x18u, 0x04u},
 367:Generated_Source\PSoC4/cyfitter_cfg.c **** 			{0x19u, 0x48u},
 368:Generated_Source\PSoC4/cyfitter_cfg.c **** 			{0x1Bu, 0x02u},
 369:Generated_Source\PSoC4/cyfitter_cfg.c **** 			{0x1Cu, 0x40u},
 370:Generated_Source\PSoC4/cyfitter_cfg.c **** 			{0x1Eu, 0x01u},
 371:Generated_Source\PSoC4/cyfitter_cfg.c **** 			{0x1Fu, 0x24u},
 372:Generated_Source\PSoC4/cyfitter_cfg.c **** 			{0x21u, 0x01u},
 373:Generated_Source\PSoC4/cyfitter_cfg.c **** 			{0x24u, 0x10u},
 374:Generated_Source\PSoC4/cyfitter_cfg.c **** 			{0x25u, 0x31u},
 375:Generated_Source\PSoC4/cyfitter_cfg.c **** 			{0x26u, 0x81u},
 376:Generated_Source\PSoC4/cyfitter_cfg.c **** 			{0x28u, 0x40u},
 377:Generated_Source\PSoC4/cyfitter_cfg.c **** 			{0x2Au, 0x01u},
 378:Generated_Source\PSoC4/cyfitter_cfg.c **** 			{0x2Cu, 0x08u},
 379:Generated_Source\PSoC4/cyfitter_cfg.c **** 			{0x2Fu, 0x22u},
 380:Generated_Source\PSoC4/cyfitter_cfg.c **** 			{0x37u, 0x2Au},
 381:Generated_Source\PSoC4/cyfitter_cfg.c **** 			{0x38u, 0x01u},
 382:Generated_Source\PSoC4/cyfitter_cfg.c **** 			{0x3Cu, 0x40u},
 383:Generated_Source\PSoC4/cyfitter_cfg.c **** 			{0x3Du, 0x2Au},
 384:Generated_Source\PSoC4/cyfitter_cfg.c **** 			{0x3Eu, 0x80u},
 385:Generated_Source\PSoC4/cyfitter_cfg.c **** 			{0x44u, 0x40u},
 386:Generated_Source\PSoC4/cyfitter_cfg.c **** 			{0x45u, 0x14u},
 387:Generated_Source\PSoC4/cyfitter_cfg.c **** 			{0x46u, 0x20u},
 388:Generated_Source\PSoC4/cyfitter_cfg.c **** 			{0x47u, 0x40u},
 389:Generated_Source\PSoC4/cyfitter_cfg.c **** 			{0x4Eu, 0x04u},
 390:Generated_Source\PSoC4/cyfitter_cfg.c **** 			{0x55u, 0x02u},
 391:Generated_Source\PSoC4/cyfitter_cfg.c **** 			{0x57u, 0x08u},
 392:Generated_Source\PSoC4/cyfitter_cfg.c **** 			{0x5Au, 0x01u},
 393:Generated_Source\PSoC4/cyfitter_cfg.c **** 			{0x5Cu, 0x10u},
 394:Generated_Source\PSoC4/cyfitter_cfg.c **** 			{0x60u, 0x04u},
 395:Generated_Source\PSoC4/cyfitter_cfg.c **** 			{0x61u, 0x40u},
 396:Generated_Source\PSoC4/cyfitter_cfg.c **** 			{0x63u, 0x40u},
 397:Generated_Source\PSoC4/cyfitter_cfg.c **** 			{0x6Cu, 0x20u},
 398:Generated_Source\PSoC4/cyfitter_cfg.c **** 			{0x6Du, 0x10u},
 399:Generated_Source\PSoC4/cyfitter_cfg.c **** 			{0x6Eu, 0x10u},
 400:Generated_Source\PSoC4/cyfitter_cfg.c **** 			{0x6Fu, 0x01u},
 401:Generated_Source\PSoC4/cyfitter_cfg.c **** 			{0x77u, 0x2Au},
 402:Generated_Source\PSoC4/cyfitter_cfg.c **** 			{0x84u, 0x40u},
 403:Generated_Source\PSoC4/cyfitter_cfg.c **** 			{0x87u, 0x60u},
 404:Generated_Source\PSoC4/cyfitter_cfg.c **** 			{0x89u, 0x01u},
 405:Generated_Source\PSoC4/cyfitter_cfg.c **** 			{0xC0u, 0xFEu},
 406:Generated_Source\PSoC4/cyfitter_cfg.c **** 			{0xC2u, 0xEAu},
 407:Generated_Source\PSoC4/cyfitter_cfg.c **** 			{0xC4u, 0xF2u},
 408:Generated_Source\PSoC4/cyfitter_cfg.c **** 			{0xCAu, 0x70u},
 409:Generated_Source\PSoC4/cyfitter_cfg.c **** 			{0xCCu, 0xE0u},
 410:Generated_Source\PSoC4/cyfitter_cfg.c **** 			{0xCEu, 0xF1u},
 411:Generated_Source\PSoC4/cyfitter_cfg.c **** 			{0xD0u, 0xF0u},
 412:Generated_Source\PSoC4/cyfitter_cfg.c **** 			{0xD2u, 0x20u},
 413:Generated_Source\PSoC4/cyfitter_cfg.c **** 			{0xD6u, 0x21u},
ARM GAS  C:\Users\jupac\AppData\Local\Temp\ccEXxjja.s 			page 15


 414:Generated_Source\PSoC4/cyfitter_cfg.c **** 			{0xD8u, 0x0Du},
 415:Generated_Source\PSoC4/cyfitter_cfg.c **** 			{0xE2u, 0x20u},
 416:Generated_Source\PSoC4/cyfitter_cfg.c **** 			{0x01u, 0x01u},
 417:Generated_Source\PSoC4/cyfitter_cfg.c **** 			{0x02u, 0x08u},
 418:Generated_Source\PSoC4/cyfitter_cfg.c **** 			{0x03u, 0x0Au},
 419:Generated_Source\PSoC4/cyfitter_cfg.c **** 			{0x04u, 0x13u},
 420:Generated_Source\PSoC4/cyfitter_cfg.c **** 			{0x06u, 0x04u},
 421:Generated_Source\PSoC4/cyfitter_cfg.c **** 			{0x08u, 0x80u},
 422:Generated_Source\PSoC4/cyfitter_cfg.c **** 			{0x09u, 0x13u},
 423:Generated_Source\PSoC4/cyfitter_cfg.c **** 			{0x0Au, 0x20u},
 424:Generated_Source\PSoC4/cyfitter_cfg.c **** 			{0x10u, 0x0Au},
 425:Generated_Source\PSoC4/cyfitter_cfg.c **** 			{0x11u, 0x10u},
 426:Generated_Source\PSoC4/cyfitter_cfg.c **** 			{0x12u, 0x14u},
 427:Generated_Source\PSoC4/cyfitter_cfg.c **** 			{0x14u, 0x20u},
 428:Generated_Source\PSoC4/cyfitter_cfg.c **** 			{0x15u, 0x02u},
 429:Generated_Source\PSoC4/cyfitter_cfg.c **** 			{0x16u, 0xC0u},
 430:Generated_Source\PSoC4/cyfitter_cfg.c **** 			{0x17u, 0x09u},
 431:Generated_Source\PSoC4/cyfitter_cfg.c **** 			{0x18u, 0xE0u},
 432:Generated_Source\PSoC4/cyfitter_cfg.c **** 			{0x1Cu, 0x40u},
 433:Generated_Source\PSoC4/cyfitter_cfg.c **** 			{0x1Eu, 0x20u},
 434:Generated_Source\PSoC4/cyfitter_cfg.c **** 			{0x20u, 0x13u},
 435:Generated_Source\PSoC4/cyfitter_cfg.c **** 			{0x22u, 0x0Cu},
 436:Generated_Source\PSoC4/cyfitter_cfg.c **** 			{0x25u, 0x13u},
 437:Generated_Source\PSoC4/cyfitter_cfg.c **** 			{0x26u, 0x15u},
 438:Generated_Source\PSoC4/cyfitter_cfg.c **** 			{0x28u, 0xE0u},
 439:Generated_Source\PSoC4/cyfitter_cfg.c **** 			{0x2Bu, 0x04u},
 440:Generated_Source\PSoC4/cyfitter_cfg.c **** 			{0x2Cu, 0x03u},
 441:Generated_Source\PSoC4/cyfitter_cfg.c **** 			{0x2Eu, 0x14u},
 442:Generated_Source\PSoC4/cyfitter_cfg.c **** 			{0x30u, 0x10u},
 443:Generated_Source\PSoC4/cyfitter_cfg.c **** 			{0x31u, 0x0Cu},
 444:Generated_Source\PSoC4/cyfitter_cfg.c **** 			{0x32u, 0xE0u},
 445:Generated_Source\PSoC4/cyfitter_cfg.c **** 			{0x33u, 0x10u},
 446:Generated_Source\PSoC4/cyfitter_cfg.c **** 			{0x34u, 0x0Fu},
 447:Generated_Source\PSoC4/cyfitter_cfg.c **** 			{0x35u, 0x03u},
 448:Generated_Source\PSoC4/cyfitter_cfg.c **** 			{0x3Au, 0x20u},
 449:Generated_Source\PSoC4/cyfitter_cfg.c **** 			{0x3Eu, 0x01u},
 450:Generated_Source\PSoC4/cyfitter_cfg.c **** 			{0x3Fu, 0x01u},
 451:Generated_Source\PSoC4/cyfitter_cfg.c **** 			{0x40u, 0x42u},
 452:Generated_Source\PSoC4/cyfitter_cfg.c **** 			{0x41u, 0x06u},
 453:Generated_Source\PSoC4/cyfitter_cfg.c **** 			{0x46u, 0x0Bu},
 454:Generated_Source\PSoC4/cyfitter_cfg.c **** 			{0x47u, 0xCEu},
 455:Generated_Source\PSoC4/cyfitter_cfg.c **** 			{0x48u, 0x34u},
 456:Generated_Source\PSoC4/cyfitter_cfg.c **** 			{0x49u, 0xFFu},
 457:Generated_Source\PSoC4/cyfitter_cfg.c **** 			{0x4Au, 0xFFu},
 458:Generated_Source\PSoC4/cyfitter_cfg.c **** 			{0x4Bu, 0xFFu},
 459:Generated_Source\PSoC4/cyfitter_cfg.c **** 			{0x4Eu, 0xF0u},
 460:Generated_Source\PSoC4/cyfitter_cfg.c **** 			{0x4Fu, 0x44u},
 461:Generated_Source\PSoC4/cyfitter_cfg.c **** 			{0x50u, 0x0Cu},
 462:Generated_Source\PSoC4/cyfitter_cfg.c **** 			{0x54u, 0x01u},
 463:Generated_Source\PSoC4/cyfitter_cfg.c **** 			{0x58u, 0x04u},
 464:Generated_Source\PSoC4/cyfitter_cfg.c **** 			{0x59u, 0x04u},
 465:Generated_Source\PSoC4/cyfitter_cfg.c **** 			{0x5Au, 0x04u},
 466:Generated_Source\PSoC4/cyfitter_cfg.c **** 			{0x5Bu, 0x04u},
 467:Generated_Source\PSoC4/cyfitter_cfg.c **** 			{0x5Fu, 0x01u},
 468:Generated_Source\PSoC4/cyfitter_cfg.c **** 			{0x66u, 0xC0u},
 469:Generated_Source\PSoC4/cyfitter_cfg.c **** 			{0x6Au, 0x40u},
 470:Generated_Source\PSoC4/cyfitter_cfg.c **** 			{0x6Bu, 0x02u},
ARM GAS  C:\Users\jupac\AppData\Local\Temp\ccEXxjja.s 			page 16


 471:Generated_Source\PSoC4/cyfitter_cfg.c **** 			{0x82u, 0x03u},
 472:Generated_Source\PSoC4/cyfitter_cfg.c **** 			{0x84u, 0x10u},
 473:Generated_Source\PSoC4/cyfitter_cfg.c **** 			{0x85u, 0x80u},
 474:Generated_Source\PSoC4/cyfitter_cfg.c **** 			{0x86u, 0xACu},
 475:Generated_Source\PSoC4/cyfitter_cfg.c **** 			{0x87u, 0x13u},
 476:Generated_Source\PSoC4/cyfitter_cfg.c **** 			{0x8Fu, 0x0Cu},
 477:Generated_Source\PSoC4/cyfitter_cfg.c **** 			{0x90u, 0xDCu},
 478:Generated_Source\PSoC4/cyfitter_cfg.c **** 			{0x92u, 0x22u},
 479:Generated_Source\PSoC4/cyfitter_cfg.c **** 			{0x95u, 0x2Cu},
 480:Generated_Source\PSoC4/cyfitter_cfg.c **** 			{0x97u, 0x43u},
 481:Generated_Source\PSoC4/cyfitter_cfg.c **** 			{0x98u, 0x0Cu},
 482:Generated_Source\PSoC4/cyfitter_cfg.c **** 			{0x99u, 0x71u},
 483:Generated_Source\PSoC4/cyfitter_cfg.c **** 			{0x9Au, 0x71u},
 484:Generated_Source\PSoC4/cyfitter_cfg.c **** 			{0x9Bu, 0x06u},
 485:Generated_Source\PSoC4/cyfitter_cfg.c **** 			{0x9Cu, 0x14u},
 486:Generated_Source\PSoC4/cyfitter_cfg.c **** 			{0x9Fu, 0x08u},
 487:Generated_Source\PSoC4/cyfitter_cfg.c **** 			{0xA0u, 0x10u},
 488:Generated_Source\PSoC4/cyfitter_cfg.c **** 			{0xA2u, 0x40u},
 489:Generated_Source\PSoC4/cyfitter_cfg.c **** 			{0xA9u, 0x71u},
 490:Generated_Source\PSoC4/cyfitter_cfg.c **** 			{0xAAu, 0x20u},
 491:Generated_Source\PSoC4/cyfitter_cfg.c **** 			{0xABu, 0x0Eu},
 492:Generated_Source\PSoC4/cyfitter_cfg.c **** 			{0xACu, 0x09u},
 493:Generated_Source\PSoC4/cyfitter_cfg.c **** 			{0xAEu, 0xD0u},
 494:Generated_Source\PSoC4/cyfitter_cfg.c **** 			{0xB1u, 0xC0u},
 495:Generated_Source\PSoC4/cyfitter_cfg.c **** 			{0xB3u, 0x0Fu},
 496:Generated_Source\PSoC4/cyfitter_cfg.c **** 			{0xB4u, 0xE0u},
 497:Generated_Source\PSoC4/cyfitter_cfg.c **** 			{0xB5u, 0x30u},
 498:Generated_Source\PSoC4/cyfitter_cfg.c **** 			{0xB6u, 0x1Fu},
 499:Generated_Source\PSoC4/cyfitter_cfg.c **** 			{0xB9u, 0x22u},
 500:Generated_Source\PSoC4/cyfitter_cfg.c **** 			{0xBAu, 0x20u},
 501:Generated_Source\PSoC4/cyfitter_cfg.c **** 			{0xBBu, 0x08u},
 502:Generated_Source\PSoC4/cyfitter_cfg.c **** 			{0xBFu, 0x10u},
 503:Generated_Source\PSoC4/cyfitter_cfg.c **** 			{0xC0u, 0x02u},
 504:Generated_Source\PSoC4/cyfitter_cfg.c **** 			{0xC5u, 0x40u},
 505:Generated_Source\PSoC4/cyfitter_cfg.c **** 			{0xC9u, 0xFFu},
 506:Generated_Source\PSoC4/cyfitter_cfg.c **** 			{0xCAu, 0x07u},
 507:Generated_Source\PSoC4/cyfitter_cfg.c **** 			{0xCBu, 0xFFu},
 508:Generated_Source\PSoC4/cyfitter_cfg.c **** 			{0xCCu, 0x40u},
 509:Generated_Source\PSoC4/cyfitter_cfg.c **** 			{0xCDu, 0x20u},
 510:Generated_Source\PSoC4/cyfitter_cfg.c **** 			{0xCEu, 0xF0u},
 511:Generated_Source\PSoC4/cyfitter_cfg.c **** 			{0xCFu, 0x05u},
 512:Generated_Source\PSoC4/cyfitter_cfg.c **** 			{0xD0u, 0x08u},
 513:Generated_Source\PSoC4/cyfitter_cfg.c **** 			{0xD8u, 0x04u},
 514:Generated_Source\PSoC4/cyfitter_cfg.c **** 			{0xD9u, 0x04u},
 515:Generated_Source\PSoC4/cyfitter_cfg.c **** 			{0xDAu, 0x04u},
 516:Generated_Source\PSoC4/cyfitter_cfg.c **** 			{0xDFu, 0x01u},
 517:Generated_Source\PSoC4/cyfitter_cfg.c **** 			{0xE0u, 0x40u},
 518:Generated_Source\PSoC4/cyfitter_cfg.c **** 			{0xE1u, 0xA8u},
 519:Generated_Source\PSoC4/cyfitter_cfg.c **** 			{0xE2u, 0x40u},
 520:Generated_Source\PSoC4/cyfitter_cfg.c **** 			{0xE3u, 0x20u},
 521:Generated_Source\PSoC4/cyfitter_cfg.c **** 			{0x00u, 0x01u},
 522:Generated_Source\PSoC4/cyfitter_cfg.c **** 			{0x03u, 0x20u},
 523:Generated_Source\PSoC4/cyfitter_cfg.c **** 			{0x04u, 0x04u},
 524:Generated_Source\PSoC4/cyfitter_cfg.c **** 			{0x07u, 0x84u},
 525:Generated_Source\PSoC4/cyfitter_cfg.c **** 			{0x09u, 0x40u},
 526:Generated_Source\PSoC4/cyfitter_cfg.c **** 			{0x0Au, 0x48u},
 527:Generated_Source\PSoC4/cyfitter_cfg.c **** 			{0x0Cu, 0x20u},
ARM GAS  C:\Users\jupac\AppData\Local\Temp\ccEXxjja.s 			page 17


 528:Generated_Source\PSoC4/cyfitter_cfg.c **** 			{0x0Eu, 0x60u},
 529:Generated_Source\PSoC4/cyfitter_cfg.c **** 			{0x0Fu, 0x01u},
 530:Generated_Source\PSoC4/cyfitter_cfg.c **** 			{0x10u, 0x80u},
 531:Generated_Source\PSoC4/cyfitter_cfg.c **** 			{0x12u, 0x04u},
 532:Generated_Source\PSoC4/cyfitter_cfg.c **** 			{0x13u, 0x80u},
 533:Generated_Source\PSoC4/cyfitter_cfg.c **** 			{0x14u, 0x40u},
 534:Generated_Source\PSoC4/cyfitter_cfg.c **** 			{0x15u, 0x18u},
 535:Generated_Source\PSoC4/cyfitter_cfg.c **** 			{0x16u, 0x01u},
 536:Generated_Source\PSoC4/cyfitter_cfg.c **** 			{0x18u, 0x05u},
 537:Generated_Source\PSoC4/cyfitter_cfg.c **** 			{0x19u, 0x10u},
 538:Generated_Source\PSoC4/cyfitter_cfg.c **** 			{0x1Au, 0x08u},
 539:Generated_Source\PSoC4/cyfitter_cfg.c **** 			{0x1Cu, 0x40u},
 540:Generated_Source\PSoC4/cyfitter_cfg.c **** 			{0x1Eu, 0x20u},
 541:Generated_Source\PSoC4/cyfitter_cfg.c **** 			{0x1Fu, 0x28u},
 542:Generated_Source\PSoC4/cyfitter_cfg.c **** 			{0x21u, 0x20u},
 543:Generated_Source\PSoC4/cyfitter_cfg.c **** 			{0x22u, 0x08u},
 544:Generated_Source\PSoC4/cyfitter_cfg.c **** 			{0x23u, 0xC0u},
 545:Generated_Source\PSoC4/cyfitter_cfg.c **** 			{0x25u, 0x04u},
 546:Generated_Source\PSoC4/cyfitter_cfg.c **** 			{0x27u, 0x4Cu},
 547:Generated_Source\PSoC4/cyfitter_cfg.c **** 			{0x29u, 0x10u},
 548:Generated_Source\PSoC4/cyfitter_cfg.c **** 			{0x2Cu, 0x20u},
 549:Generated_Source\PSoC4/cyfitter_cfg.c **** 			{0x2Fu, 0x08u},
 550:Generated_Source\PSoC4/cyfitter_cfg.c **** 			{0x30u, 0x80u},
 551:Generated_Source\PSoC4/cyfitter_cfg.c **** 			{0x32u, 0x08u},
 552:Generated_Source\PSoC4/cyfitter_cfg.c **** 			{0x33u, 0x20u},
 553:Generated_Source\PSoC4/cyfitter_cfg.c **** 			{0x37u, 0x09u},
 554:Generated_Source\PSoC4/cyfitter_cfg.c **** 			{0x38u, 0x08u},
 555:Generated_Source\PSoC4/cyfitter_cfg.c **** 			{0x3Bu, 0x40u},
 556:Generated_Source\PSoC4/cyfitter_cfg.c **** 			{0x3Eu, 0x10u},
 557:Generated_Source\PSoC4/cyfitter_cfg.c **** 			{0x3Fu, 0x01u},
 558:Generated_Source\PSoC4/cyfitter_cfg.c **** 			{0x41u, 0x20u},
 559:Generated_Source\PSoC4/cyfitter_cfg.c **** 			{0x44u, 0x40u},
 560:Generated_Source\PSoC4/cyfitter_cfg.c **** 			{0x46u, 0x04u},
 561:Generated_Source\PSoC4/cyfitter_cfg.c **** 			{0x48u, 0x80u},
 562:Generated_Source\PSoC4/cyfitter_cfg.c **** 			{0x4Eu, 0x04u},
 563:Generated_Source\PSoC4/cyfitter_cfg.c **** 			{0x50u, 0x04u},
 564:Generated_Source\PSoC4/cyfitter_cfg.c **** 			{0x51u, 0x04u},
 565:Generated_Source\PSoC4/cyfitter_cfg.c **** 			{0x52u, 0x04u},
 566:Generated_Source\PSoC4/cyfitter_cfg.c **** 			{0x54u, 0x05u},
 567:Generated_Source\PSoC4/cyfitter_cfg.c **** 			{0x55u, 0x40u},
 568:Generated_Source\PSoC4/cyfitter_cfg.c **** 			{0x56u, 0x01u},
 569:Generated_Source\PSoC4/cyfitter_cfg.c **** 			{0x5Cu, 0x60u},
 570:Generated_Source\PSoC4/cyfitter_cfg.c **** 			{0x5Du, 0x08u},
 571:Generated_Source\PSoC4/cyfitter_cfg.c **** 			{0x5Fu, 0x02u},
 572:Generated_Source\PSoC4/cyfitter_cfg.c **** 			{0x80u, 0x48u},
 573:Generated_Source\PSoC4/cyfitter_cfg.c **** 			{0x83u, 0x01u},
 574:Generated_Source\PSoC4/cyfitter_cfg.c **** 			{0x84u, 0x25u},
 575:Generated_Source\PSoC4/cyfitter_cfg.c **** 			{0x87u, 0x02u},
 576:Generated_Source\PSoC4/cyfitter_cfg.c **** 			{0x88u, 0x40u},
 577:Generated_Source\PSoC4/cyfitter_cfg.c **** 			{0x8Bu, 0x20u},
 578:Generated_Source\PSoC4/cyfitter_cfg.c **** 			{0x8Eu, 0x48u},
 579:Generated_Source\PSoC4/cyfitter_cfg.c **** 			{0x91u, 0x10u},
 580:Generated_Source\PSoC4/cyfitter_cfg.c **** 			{0x92u, 0x10u},
 581:Generated_Source\PSoC4/cyfitter_cfg.c **** 			{0x94u, 0x81u},
 582:Generated_Source\PSoC4/cyfitter_cfg.c **** 			{0x99u, 0x08u},
 583:Generated_Source\PSoC4/cyfitter_cfg.c **** 			{0x9Bu, 0x01u},
 584:Generated_Source\PSoC4/cyfitter_cfg.c **** 			{0x9Fu, 0x44u},
ARM GAS  C:\Users\jupac\AppData\Local\Temp\ccEXxjja.s 			page 18


 585:Generated_Source\PSoC4/cyfitter_cfg.c **** 			{0xA0u, 0x20u},
 586:Generated_Source\PSoC4/cyfitter_cfg.c **** 			{0xA4u, 0x0Cu},
 587:Generated_Source\PSoC4/cyfitter_cfg.c **** 			{0xA5u, 0x04u},
 588:Generated_Source\PSoC4/cyfitter_cfg.c **** 			{0xA6u, 0x10u},
 589:Generated_Source\PSoC4/cyfitter_cfg.c **** 			{0xC0u, 0x7Cu},
 590:Generated_Source\PSoC4/cyfitter_cfg.c **** 			{0xC2u, 0xFBu},
 591:Generated_Source\PSoC4/cyfitter_cfg.c **** 			{0xC4u, 0xFBu},
 592:Generated_Source\PSoC4/cyfitter_cfg.c **** 			{0xCAu, 0x64u},
 593:Generated_Source\PSoC4/cyfitter_cfg.c **** 			{0xCCu, 0xCEu},
 594:Generated_Source\PSoC4/cyfitter_cfg.c **** 			{0xCEu, 0xAAu},
 595:Generated_Source\PSoC4/cyfitter_cfg.c **** 			{0xD0u, 0xA4u},
 596:Generated_Source\PSoC4/cyfitter_cfg.c **** 			{0xD2u, 0x20u},
 597:Generated_Source\PSoC4/cyfitter_cfg.c **** 			{0xD6u, 0xF0u},
 598:Generated_Source\PSoC4/cyfitter_cfg.c **** 			{0x86u, 0x40u},
 599:Generated_Source\PSoC4/cyfitter_cfg.c **** 			{0x8Au, 0x01u},
 600:Generated_Source\PSoC4/cyfitter_cfg.c **** 			{0xE6u, 0x40u},
 601:Generated_Source\PSoC4/cyfitter_cfg.c **** 			{0x0Au, 0x10u},
 602:Generated_Source\PSoC4/cyfitter_cfg.c **** 			{0x5Au, 0x02u},
 603:Generated_Source\PSoC4/cyfitter_cfg.c **** 			{0x6Eu, 0x80u},
 604:Generated_Source\PSoC4/cyfitter_cfg.c **** 			{0x82u, 0x10u},
 605:Generated_Source\PSoC4/cyfitter_cfg.c **** 			{0x92u, 0x02u},
 606:Generated_Source\PSoC4/cyfitter_cfg.c **** 			{0xA2u, 0x40u},
 607:Generated_Source\PSoC4/cyfitter_cfg.c **** 			{0xC2u, 0x10u},
 608:Generated_Source\PSoC4/cyfitter_cfg.c **** 			{0xD6u, 0x40u},
 609:Generated_Source\PSoC4/cyfitter_cfg.c **** 			{0xDAu, 0x80u},
 610:Generated_Source\PSoC4/cyfitter_cfg.c **** 			{0xE0u, 0x80u},
 611:Generated_Source\PSoC4/cyfitter_cfg.c **** 			{0x10u, 0x01u},
 612:Generated_Source\PSoC4/cyfitter_cfg.c **** 			{0x11u, 0x01u},
 613:Generated_Source\PSoC4/cyfitter_cfg.c **** 		};
 614:Generated_Source\PSoC4/cyfitter_cfg.c **** 
 615:Generated_Source\PSoC4/cyfitter_cfg.c **** 
 616:Generated_Source\PSoC4/cyfitter_cfg.c **** 
 617:Generated_Source\PSoC4/cyfitter_cfg.c **** 		CYPACKED typedef struct {
 618:Generated_Source\PSoC4/cyfitter_cfg.c **** 			void CYFAR *address;
 619:Generated_Source\PSoC4/cyfitter_cfg.c **** 			uint16 size;
 620:Generated_Source\PSoC4/cyfitter_cfg.c **** 		} CYPACKED_ATTR cfg_memset_t;
 621:Generated_Source\PSoC4/cyfitter_cfg.c **** 
 622:Generated_Source\PSoC4/cyfitter_cfg.c **** 
 623:Generated_Source\PSoC4/cyfitter_cfg.c **** 		CYPACKED typedef struct {
 624:Generated_Source\PSoC4/cyfitter_cfg.c **** 			void CYFAR *dest;
 625:Generated_Source\PSoC4/cyfitter_cfg.c **** 			const void CYCODE *src;
 626:Generated_Source\PSoC4/cyfitter_cfg.c **** 			uint16 size;
 627:Generated_Source\PSoC4/cyfitter_cfg.c **** 		} CYPACKED_ATTR cfg_memcpy_t;
 628:Generated_Source\PSoC4/cyfitter_cfg.c **** 
 629:Generated_Source\PSoC4/cyfitter_cfg.c **** 		static const cfg_memset_t CYCODE cfg_memset_list[] = {
 630:Generated_Source\PSoC4/cyfitter_cfg.c **** 			/* address, size */
 631:Generated_Source\PSoC4/cyfitter_cfg.c **** 			{(void CYFAR *)(CYDEV_UDB_P0_U0_BASE), 128u},
 632:Generated_Source\PSoC4/cyfitter_cfg.c **** 			{(void CYFAR *)(CYDEV_UDB_P0_ROUTE_BASE), 768u},
 633:Generated_Source\PSoC4/cyfitter_cfg.c **** 			{(void CYFAR *)(CYDEV_UDB_DSI0_BASE), 1024u},
 634:Generated_Source\PSoC4/cyfitter_cfg.c **** 		};
 635:Generated_Source\PSoC4/cyfitter_cfg.c **** 
 636:Generated_Source\PSoC4/cyfitter_cfg.c **** 		/* UDB_0_1_1_CONFIG Address: CYDEV_UDB_P0_U1_BASE Size (bytes): 128 */
 637:Generated_Source\PSoC4/cyfitter_cfg.c **** 		static const uint8 CYCODE BS_UDB_0_1_1_CONFIG_VAL[] = {
 638:Generated_Source\PSoC4/cyfitter_cfg.c **** 			0x0Fu, 0x3Cu, 0xF0u, 0x42u, 0x00u, 0x00u, 0xF3u, 0x03u, 0x82u, 0x7Fu, 0x00u, 0x00u, 0x41u, 0x3Cu
 639:Generated_Source\PSoC4/cyfitter_cfg.c **** 			0x00u, 0x10u, 0x00u, 0x00u, 0xC3u, 0x08u, 0x00u, 0x00u, 0xFFu, 0x18u, 0x00u, 0x00u, 0x1Cu, 0x00u
 640:Generated_Source\PSoC4/cyfitter_cfg.c **** 			0x08u, 0x00u, 0x00u, 0x00u, 0x04u, 0x67u, 0x00u, 0x18u, 0x0Cu, 0x04u, 0x00u, 0x00u, 0xF3u, 0x00u
 641:Generated_Source\PSoC4/cyfitter_cfg.c **** 			0x2Cu, 0x1Fu, 0x1Cu, 0x20u, 0x0Fu, 0x00u, 0xC0u, 0x40u, 0x00u, 0x80u, 0x22u, 0x22u, 0x00u, 0x00u
ARM GAS  C:\Users\jupac\AppData\Local\Temp\ccEXxjja.s 			page 19


 642:Generated_Source\PSoC4/cyfitter_cfg.c **** 			0x43u, 0x02u, 0x06u, 0x00u, 0x01u, 0x00u, 0x00u, 0xCEu, 0x30u, 0xFFu, 0xFFu, 0xFFu, 0x62u, 0xA0u
 643:Generated_Source\PSoC4/cyfitter_cfg.c **** 			0x0Cu, 0x00u, 0x00u, 0x00u, 0x00u, 0x00u, 0x02u, 0x11u, 0x04u, 0x04u, 0x04u, 0x04u, 0x00u, 0x00u
 644:Generated_Source\PSoC4/cyfitter_cfg.c **** 			0x00u, 0x00u, 0x00u, 0x00u, 0x00u, 0x00u, 0x40u, 0x02u, 0x00u, 0x10u, 0x30u, 0x10u, 0x00u, 0x10u
 645:Generated_Source\PSoC4/cyfitter_cfg.c **** 			0x00u, 0x00u, 0x00u, 0x00u, 0x00u, 0x00u, 0x00u, 0x00u, 0x00u, 0x00u, 0x00u, 0x00u, 0x00u, 0x00u
 646:Generated_Source\PSoC4/cyfitter_cfg.c **** 
 647:Generated_Source\PSoC4/cyfitter_cfg.c **** 		static const cfg_memcpy_t CYCODE cfg_memcpy_list [] = {
 648:Generated_Source\PSoC4/cyfitter_cfg.c **** 			/* dest, src, size */
 649:Generated_Source\PSoC4/cyfitter_cfg.c **** 			{(void CYFAR *)(CYDEV_UDB_P0_U1_BASE), BS_UDB_0_1_1_CONFIG_VAL, 128u},
 650:Generated_Source\PSoC4/cyfitter_cfg.c **** 		};
 651:Generated_Source\PSoC4/cyfitter_cfg.c **** 
 652:Generated_Source\PSoC4/cyfitter_cfg.c **** 		uint8 CYDATA i;
 653:Generated_Source\PSoC4/cyfitter_cfg.c **** 
 654:Generated_Source\PSoC4/cyfitter_cfg.c **** 		/* Zero out critical memory blocks before beginning configuration */
 655:Generated_Source\PSoC4/cyfitter_cfg.c **** 		for (i = 0u; i < (sizeof(cfg_memset_list)/sizeof(cfg_memset_list[0])); i++)
 354              		.loc 1 655 0
 355 00e8 0024     		movs	r4, #0
 356 00ea 0FE0     		b	.L15
 357              	.LVL26:
 358              	.L16:
 359              	.LBB4:
 656:Generated_Source\PSoC4/cyfitter_cfg.c **** 		{
 657:Generated_Source\PSoC4/cyfitter_cfg.c **** 			const cfg_memset_t CYCODE * CYDATA ms = &cfg_memset_list[i];
 658:Generated_Source\PSoC4/cyfitter_cfg.c **** 			CYMEMZERO(ms->address, (size_t)(uint32)(ms->size));
 360              		.loc 1 658 0 discriminator 3
 361 00ec 3D48     		ldr	r0, .L19+8
 362 00ee 6200     		lsls	r2, r4, #1
 363 00f0 1319     		adds	r3, r2, r4
 364 00f2 5900     		lsls	r1, r3, #1
 365 00f4 0B00     		movs	r3, r1
 366 00f6 4118     		adds	r1, r0, r1
 367 00f8 8988     		ldrh	r1, [r1, #4]
 368 00fa 1A5A     		ldrh	r2, [r3, r0]
 369 00fc C318     		adds	r3, r0, r3
 370 00fe 5888     		ldrh	r0, [r3, #2]
 371 0100 0004     		lsls	r0, r0, #16
 372 0102 1043     		orrs	r0, r2
 373 0104 FFF7FEFF 		bl	CYMEMZERO
 374              	.LVL27:
 375              	.LBE4:
 655:Generated_Source\PSoC4/cyfitter_cfg.c **** 		{
 376              		.loc 1 655 0 discriminator 3
 377 0108 0134     		adds	r4, r4, #1
 378              	.LVL28:
 379 010a E4B2     		uxtb	r4, r4
 380              	.LVL29:
 381              	.L15:
 655:Generated_Source\PSoC4/cyfitter_cfg.c **** 		{
 382              		.loc 1 655 0 is_stmt 0 discriminator 1
 383 010c 022C     		cmp	r4, #2
 384 010e EDD9     		bls	.L16
 385 0110 0024     		movs	r4, #0
 386              	.LVL30:
 387 0112 11E0     		b	.L17
 388              	.LVL31:
 389              	.L18:
 390              	.LBB5:
 659:Generated_Source\PSoC4/cyfitter_cfg.c **** 		}
ARM GAS  C:\Users\jupac\AppData\Local\Temp\ccEXxjja.s 			page 20


 660:Generated_Source\PSoC4/cyfitter_cfg.c **** 
 661:Generated_Source\PSoC4/cyfitter_cfg.c **** 		/* Copy device configuration data into registers */
 662:Generated_Source\PSoC4/cyfitter_cfg.c **** 		for (i = 0u; i < (sizeof(cfg_memcpy_list)/sizeof(cfg_memcpy_list[0])); i++)
 663:Generated_Source\PSoC4/cyfitter_cfg.c **** 		{
 664:Generated_Source\PSoC4/cyfitter_cfg.c **** 			const cfg_memcpy_t CYCODE * CYDATA mc = &cfg_memcpy_list[i];
 665:Generated_Source\PSoC4/cyfitter_cfg.c **** 			void * CYDATA destPtr = mc->dest;
 391              		.loc 1 665 0 is_stmt 1 discriminator 3
 392 0114 334E     		ldr	r6, .L19+8
 393 0116 A200     		lsls	r2, r4, #2
 394 0118 1319     		adds	r3, r2, r4
 395 011a 5900     		lsls	r1, r3, #1
 396 011c 7118     		adds	r1, r6, r1
 397 011e 8D8A     		ldrh	r5, [r1, #20]
 398 0120 C88A     		ldrh	r0, [r1, #22]
 399 0122 0004     		lsls	r0, r0, #16
 400 0124 2843     		orrs	r0, r5
 401              	.LVL32:
 666:Generated_Source\PSoC4/cyfitter_cfg.c **** 			const void CYCODE * CYDATA srcPtr = mc->src;
 402              		.loc 1 666 0 discriminator 3
 403 0126 0A8B     		ldrh	r2, [r1, #24]
 404 0128 498B     		ldrh	r1, [r1, #26]
 405 012a 0904     		lsls	r1, r1, #16
 406 012c 1143     		orrs	r1, r2
 407              	.LVL33:
 667:Generated_Source\PSoC4/cyfitter_cfg.c **** 			uint16 CYDATA numBytes = mc->size;
 668:Generated_Source\PSoC4/cyfitter_cfg.c **** 			CYCONFIGCPYCODE(destPtr, srcPtr, numBytes);
 408              		.loc 1 668 0 discriminator 3
 409 012e 8022     		movs	r2, #128
 410 0130 FFF7FEFF 		bl	CYCONFIGCPYCODE
 411              	.LVL34:
 412              	.LBE5:
 662:Generated_Source\PSoC4/cyfitter_cfg.c **** 		{
 413              		.loc 1 662 0 discriminator 3
 414 0134 0134     		adds	r4, r4, #1
 415              	.LVL35:
 416 0136 E4B2     		uxtb	r4, r4
 417              	.LVL36:
 418              	.L17:
 662:Generated_Source\PSoC4/cyfitter_cfg.c **** 		{
 419              		.loc 1 662 0 is_stmt 0 discriminator 1
 420 0138 002C     		cmp	r4, #0
 421 013a EBD0     		beq	.L18
 669:Generated_Source\PSoC4/cyfitter_cfg.c **** 		}
 670:Generated_Source\PSoC4/cyfitter_cfg.c **** 
 671:Generated_Source\PSoC4/cyfitter_cfg.c **** 		cfg_write_bytes32(cy_cfg_addr_table, cy_cfg_data_table);
 422              		.loc 1 671 0 is_stmt 1
 423 013c 2949     		ldr	r1, .L19+8
 424 013e 2031     		adds	r1, r1, #32
 425 0140 2948     		ldr	r0, .L19+12
 426 0142 5830     		adds	r0, r0, #88
 427 0144 FFF7FEFF 		bl	cfg_write_bytes32
 428              	.LVL37:
 672:Generated_Source\PSoC4/cyfitter_cfg.c **** 
 673:Generated_Source\PSoC4/cyfitter_cfg.c **** 		/* Perform normal device configuration. Order is not critical for these items. */
 674:Generated_Source\PSoC4/cyfitter_cfg.c **** 		CY_SET_REG16((void *)(CYREG_UDB_BCTL0_DRV), 0x0100u);
 429              		.loc 1 674 0
 430 0148 8022     		movs	r2, #128
ARM GAS  C:\Users\jupac\AppData\Local\Temp\ccEXxjja.s 			page 21


 431 014a 5200     		lsls	r2, r2, #1
 432 014c 274B     		ldr	r3, .L19+16
 433 014e 1A80     		strh	r2, [r3]
 675:Generated_Source\PSoC4/cyfitter_cfg.c **** 		CY_SET_REG8((void *)(CYREG_UDB_BCTL0_DRV + 0x2u), 0x01u);
 434              		.loc 1 675 0
 435 0150 FF3A     		subs	r2, r2, #255
 436 0152 274B     		ldr	r3, .L19+20
 437 0154 1A70     		strb	r2, [r3]
 676:Generated_Source\PSoC4/cyfitter_cfg.c **** 
 677:Generated_Source\PSoC4/cyfitter_cfg.c **** 		/* HSIOM Starting address: CYDEV_HSIOM_BASE */
 678:Generated_Source\PSoC4/cyfitter_cfg.c **** 		CY_SET_REG32((void *)(CYDEV_HSIOM_BASE), 0xEE000000u);
 438              		.loc 1 678 0
 439 0156 EE22     		movs	r2, #238
 440 0158 1206     		lsls	r2, r2, #24
 441 015a 264B     		ldr	r3, .L19+24
 442 015c 1A60     		str	r2, [r3]
 679:Generated_Source\PSoC4/cyfitter_cfg.c **** 		CY_SET_REG32((void *)(CYREG_HSIOM_PORT_SEL1), 0x00300000u);
 443              		.loc 1 679 0
 444 015e C022     		movs	r2, #192
 445 0160 9203     		lsls	r2, r2, #14
 446 0162 254B     		ldr	r3, .L19+28
 447 0164 1A60     		str	r2, [r3]
 680:Generated_Source\PSoC4/cyfitter_cfg.c **** 
 681:Generated_Source\PSoC4/cyfitter_cfg.c **** 		/* UDB_PA_0 Starting address: CYDEV_UDB_PA0_BASE */
 682:Generated_Source\PSoC4/cyfitter_cfg.c **** 		CY_SET_REG32((void *)(CYDEV_UDB_PA0_BASE), 0x00990000u);
 448              		.loc 1 682 0
 449 0166 9923     		movs	r3, #153
 450 0168 1B04     		lsls	r3, r3, #16
 451 016a 244A     		ldr	r2, .L19+32
 452 016c 1360     		str	r3, [r2]
 683:Generated_Source\PSoC4/cyfitter_cfg.c **** 
 684:Generated_Source\PSoC4/cyfitter_cfg.c **** 		/* UDB_PA_1 Starting address: CYDEV_UDB_PA1_BASE */
 685:Generated_Source\PSoC4/cyfitter_cfg.c **** 		CY_SET_REG32((void *)(CYDEV_UDB_PA1_BASE), 0x00990004u);
 453              		.loc 1 685 0
 454 016e 2449     		ldr	r1, .L19+36
 455 0170 244A     		ldr	r2, .L19+40
 456 0172 1160     		str	r1, [r2]
 686:Generated_Source\PSoC4/cyfitter_cfg.c **** 		CY_SET_REG32((void *)(CYREG_UDB_PA1_CFG4), 0x02000000u);
 457              		.loc 1 686 0
 458 0174 8021     		movs	r1, #128
 459 0176 8904     		lsls	r1, r1, #18
 460 0178 234A     		ldr	r2, .L19+44
 461 017a 1160     		str	r1, [r2]
 687:Generated_Source\PSoC4/cyfitter_cfg.c **** 		CY_SET_REG32((void *)(CYREG_UDB_PA1_CFG8), 0x51000000u);
 462              		.loc 1 687 0
 463 017c A221     		movs	r1, #162
 464 017e C905     		lsls	r1, r1, #23
 465 0180 224A     		ldr	r2, .L19+48
 466 0182 1160     		str	r1, [r2]
 688:Generated_Source\PSoC4/cyfitter_cfg.c **** 
 689:Generated_Source\PSoC4/cyfitter_cfg.c **** 		/* UDB_PA_3 Starting address: CYDEV_UDB_PA3_BASE */
 690:Generated_Source\PSoC4/cyfitter_cfg.c **** 		CY_SET_REG32((void *)(CYDEV_UDB_PA3_BASE), 0x00990000u);
 467              		.loc 1 690 0
 468 0184 224A     		ldr	r2, .L19+52
 469 0186 1360     		str	r3, [r2]
 691:Generated_Source\PSoC4/cyfitter_cfg.c **** 
 692:Generated_Source\PSoC4/cyfitter_cfg.c **** 		/* INT_SELECT Starting address: CYDEV_CPUSS_INT_SEL */
ARM GAS  C:\Users\jupac\AppData\Local\Temp\ccEXxjja.s 			page 22


 693:Generated_Source\PSoC4/cyfitter_cfg.c **** 		CY_SET_REG32((void *)(CYREG_CPUSS_INT_SEL), 0x00000002u);
 470              		.loc 1 693 0
 471 0188 0223     		movs	r3, #2
 472 018a 224A     		ldr	r2, .L19+56
 473 018c 1360     		str	r3, [r2]
 694:Generated_Source\PSoC4/cyfitter_cfg.c **** 
 695:Generated_Source\PSoC4/cyfitter_cfg.c **** 		/* INT_CONFIG Starting address: CYDEV_UDB_INT_CFG */
 696:Generated_Source\PSoC4/cyfitter_cfg.c **** 		CY_SET_REG32((void *)(CYREG_UDB_INT_CFG), 0x00000002u);
 474              		.loc 1 696 0
 475 018e 224A     		ldr	r2, .L19+60
 476 0190 1360     		str	r3, [r2]
 697:Generated_Source\PSoC4/cyfitter_cfg.c **** 
 698:Generated_Source\PSoC4/cyfitter_cfg.c **** 		/* Enable UDB array and digital routing */
 699:Generated_Source\PSoC4/cyfitter_cfg.c **** 		CY_SET_XTND_REG8((void *)CYREG_UDB_UDBIF_WAIT_CFG, (uint8)((CY_GET_XTND_REG8((void *)CYREG_UDB_UD
 477              		.loc 1 699 0
 478 0192 2249     		ldr	r1, .L19+64
 479 0194 0B78     		ldrb	r3, [r1]
 480 0196 3C22     		movs	r2, #60
 481 0198 9343     		bics	r3, r2
 482 019a 1422     		movs	r2, #20
 483 019c 1343     		orrs	r3, r2
 484 019e DBB2     		uxtb	r3, r3
 485 01a0 0B70     		strb	r3, [r1]
 700:Generated_Source\PSoC4/cyfitter_cfg.c **** 		CY_SET_XTND_REG8((void *)CYREG_UDB_UDBIF_BANK_CTL, (uint8)(CY_GET_XTND_REG8((void *)CYREG_UDB_UDB
 486              		.loc 1 700 0
 487 01a2 1F4A     		ldr	r2, .L19+68
 488 01a4 1178     		ldrb	r1, [r2]
 489 01a6 1623     		movs	r3, #22
 490 01a8 0B43     		orrs	r3, r1
 491 01aa DBB2     		uxtb	r3, r3
 492 01ac 1370     		strb	r3, [r2]
 493              	.LBE3:
 701:Generated_Source\PSoC4/cyfitter_cfg.c **** 	}
 702:Generated_Source\PSoC4/cyfitter_cfg.c **** 
 703:Generated_Source\PSoC4/cyfitter_cfg.c **** 	/* Perform second pass device configuration. These items must be configured in specific order afte
 704:Generated_Source\PSoC4/cyfitter_cfg.c **** 	/* IOPINS0_0 Starting address: CYDEV_GPIO_PRT0_BASE */
 705:Generated_Source\PSoC4/cyfitter_cfg.c **** 	CY_SET_REG32((void *)(CYREG_GPIO_PRT0_PC), 0x00D80000u);
 494              		.loc 1 705 0
 495 01ae D822     		movs	r2, #216
 496 01b0 1204     		lsls	r2, r2, #16
 497 01b2 1C4B     		ldr	r3, .L19+72
 498 01b4 1A60     		str	r2, [r3]
 706:Generated_Source\PSoC4/cyfitter_cfg.c **** 
 707:Generated_Source\PSoC4/cyfitter_cfg.c **** 	/* IOPINS0_1 Starting address: CYDEV_GPIO_PRT1_BASE */
 708:Generated_Source\PSoC4/cyfitter_cfg.c **** 	CY_SET_REG32((void *)(CYDEV_GPIO_PRT1_BASE), 0x00000020u);
 499              		.loc 1 708 0
 500 01b6 2022     		movs	r2, #32
 501 01b8 1B4B     		ldr	r3, .L19+76
 502 01ba 1A60     		str	r2, [r3]
 709:Generated_Source\PSoC4/cyfitter_cfg.c **** 	CY_SET_REG32((void *)(CYREG_GPIO_PRT1_PC), 0x00031000u);
 503              		.loc 1 709 0
 504 01bc C422     		movs	r2, #196
 505 01be 9202     		lsls	r2, r2, #10
 506 01c0 1A4B     		ldr	r3, .L19+80
 507 01c2 1A60     		str	r2, [r3]
 710:Generated_Source\PSoC4/cyfitter_cfg.c **** 
 711:Generated_Source\PSoC4/cyfitter_cfg.c **** 	/* IOPINS0_3 Starting address: CYDEV_GPIO_PRT3_BASE */
ARM GAS  C:\Users\jupac\AppData\Local\Temp\ccEXxjja.s 			page 23


 712:Generated_Source\PSoC4/cyfitter_cfg.c **** 	CY_SET_REG32((void *)(CYDEV_GPIO_PRT3_BASE), 0x00000008u);
 508              		.loc 1 712 0
 509 01c4 0822     		movs	r2, #8
 510 01c6 1A4B     		ldr	r3, .L19+84
 511 01c8 1A60     		str	r2, [r3]
 713:Generated_Source\PSoC4/cyfitter_cfg.c **** 	CY_SET_REG32((void *)(CYREG_GPIO_PRT3_PC), 0x00000C00u);
 512              		.loc 1 713 0
 513 01ca C022     		movs	r2, #192
 514 01cc 1201     		lsls	r2, r2, #4
 515 01ce 194B     		ldr	r3, .L19+88
 516 01d0 1A60     		str	r2, [r3]
 714:Generated_Source\PSoC4/cyfitter_cfg.c **** 
 715:Generated_Source\PSoC4/cyfitter_cfg.c **** 
 716:Generated_Source\PSoC4/cyfitter_cfg.c **** 	/* Setup clocks based on selections from Clock DWR */
 717:Generated_Source\PSoC4/cyfitter_cfg.c **** 	ClockSetup();
 517              		.loc 1 717 0
 518 01d2 FFF715FF 		bl	ClockSetup
 519              	.LVL38:
 718:Generated_Source\PSoC4/cyfitter_cfg.c **** 
 719:Generated_Source\PSoC4/cyfitter_cfg.c **** 	/* Perform basic analog initialization to defaults */
 720:Generated_Source\PSoC4/cyfitter_cfg.c **** 	AnalogSetDefault();
 520              		.loc 1 720 0
 521 01d6 FFF7FEFF 		bl	AnalogSetDefault
 522              	.LVL39:
 721:Generated_Source\PSoC4/cyfitter_cfg.c **** 
 722:Generated_Source\PSoC4/cyfitter_cfg.c **** }
 523              		.loc 1 722 0
 524              		@ sp needed
 525              	.LVL40:
 526 01da 70BD     		pop	{r4, r5, r6, pc}
 527              	.L20:
 528              		.align	2
 529              	.L19:
 530 01dc 6CF02E40 		.word	1076818028
 531 01e0 1C700F40 		.word	1074753564
 532 01e4 00000000 		.word	.LANCHOR0
 533 01e8 00020000 		.word	.LANCHOR1
 534 01ec 00600F40 		.word	1074749440
 535 01f0 02600F40 		.word	1074749442
 536 01f4 00000240 		.word	1073872896
 537 01f8 00010240 		.word	1073873152
 538 01fc 00500F40 		.word	1074745344
 539 0200 04009900 		.word	10027012
 540 0204 10500F40 		.word	1074745360
 541 0208 14500F40 		.word	1074745364
 542 020c 18500F40 		.word	1074745368
 543 0210 30500F40 		.word	1074745392
 544 0214 20001040 		.word	1074790432
 545 0218 00800F40 		.word	1074757632
 546 021c 01700F40 		.word	1074753537
 547 0220 00700F40 		.word	1074753536
 548 0224 08000440 		.word	1074003976
 549 0228 00010440 		.word	1074004224
 550 022c 08010440 		.word	1074004232
 551 0230 00030440 		.word	1074004736
 552 0234 08030440 		.word	1074004744
 553              		.cfi_endproc
ARM GAS  C:\Users\jupac\AppData\Local\Temp\ccEXxjja.s 			page 24


 554              	.LFE8:
 555              		.size	cyfitter_cfg, .-cyfitter_cfg
 556              		.section	.rodata
 557              		.align	2
 558              		.set	.LANCHOR0,. + 0
 559              		.set	.LANCHOR1,. + 512
 560              		.type	cfg_memset_list.4921, %object
 561              		.size	cfg_memset_list.4921, 18
 562              	cfg_memset_list.4921:
 563 0000 00300F40 		.word	1074737152
 564 0004 8000     		.short	128
 565 0006 00310F40 		.4byte	1074737408
 566 000a 0003     		.short	768
 567 000c 00400F40 		.word	1074741248
 568 0010 0004     		.short	1024
 569 0012 0000     		.space	2
 570              		.type	cfg_memcpy_list.4923, %object
 571              		.size	cfg_memcpy_list.4923, 10
 572              	cfg_memcpy_list.4923:
 573 0014 80300F40 		.word	1074737280
 574 0018 78020000 		.word	BS_UDB_0_1_1_CONFIG_VAL.4922
 575 001c 8000     		.short	128
 576 001e 0000     		.space	2
 577              		.type	cy_cfg_data_table.4911, %object
 578              		.size	cy_cfg_data_table.4911, 568
 579              	cy_cfg_data_table.4911:
 580 0020 80       		.byte	-128
 581 0021 38       		.byte	56
 582 0022 81       		.byte	-127
 583 0023 72       		.byte	114
 584 0024 82       		.byte	-126
 585 0025 0F       		.byte	15
 586 0026 01       		.byte	1
 587 0027 01       		.byte	1
 588 0028 02       		.byte	2
 589 0029 02       		.byte	2
 590 002a 04       		.byte	4
 591 002b 08       		.byte	8
 592 002c 0A       		.byte	10
 593 002d 02       		.byte	2
 594 002e 12       		.byte	18
 595 002f 01       		.byte	1
 596 0030 1A       		.byte	26
 597 0031 01       		.byte	1
 598 0032 2A       		.byte	42
 599 0033 04       		.byte	4
 600 0034 30       		.byte	48
 601 0035 04       		.byte	4
 602 0036 31       		.byte	49
 603 0037 01       		.byte	1
 604 0038 32       		.byte	50
 605 0039 08       		.byte	8
 606 003a 34       		.byte	52
 607 003b 02       		.byte	2
 608 003c 36       		.byte	54
 609 003d 01       		.byte	1
 610 003e 3E       		.byte	62
ARM GAS  C:\Users\jupac\AppData\Local\Temp\ccEXxjja.s 			page 25


 611 003f 54       		.byte	84
 612 0040 3F       		.byte	63
 613 0041 01       		.byte	1
 614 0042 54       		.byte	84
 615 0043 18       		.byte	24
 616 0044 56       		.byte	86
 617 0045 04       		.byte	4
 618 0046 58       		.byte	88
 619 0047 04       		.byte	4
 620 0048 59       		.byte	89
 621 0049 04       		.byte	4
 622 004a 5B       		.byte	91
 623 004b 04       		.byte	4
 624 004c 5F       		.byte	95
 625 004d 01       		.byte	1
 626 004e 00       		.byte	0
 627 004f 08       		.byte	8
 628 0050 02       		.byte	2
 629 0051 80       		.byte	-128
 630 0052 03       		.byte	3
 631 0053 08       		.byte	8
 632 0054 04       		.byte	4
 633 0055 80       		.byte	-128
 634 0056 06       		.byte	6
 635 0057 A0       		.byte	-96
 636 0058 07       		.byte	7
 637 0059 04       		.byte	4
 638 005a 09       		.byte	9
 639 005b 02       		.byte	2
 640 005c 0A       		.byte	10
 641 005d 08       		.byte	8
 642 005e 0B       		.byte	11
 643 005f 08       		.byte	8
 644 0060 0D       		.byte	13
 645 0061 20       		.byte	32
 646 0062 0E       		.byte	14
 647 0063 22       		.byte	34
 648 0064 10       		.byte	16
 649 0065 08       		.byte	8
 650 0066 16       		.byte	22
 651 0067 01       		.byte	1
 652 0068 17       		.byte	23
 653 0069 2A       		.byte	42
 654 006a 18       		.byte	24
 655 006b 04       		.byte	4
 656 006c 19       		.byte	25
 657 006d 48       		.byte	72
 658 006e 1B       		.byte	27
 659 006f 02       		.byte	2
 660 0070 1C       		.byte	28
 661 0071 40       		.byte	64
 662 0072 1E       		.byte	30
 663 0073 01       		.byte	1
 664 0074 1F       		.byte	31
 665 0075 24       		.byte	36
 666 0076 21       		.byte	33
 667 0077 01       		.byte	1
ARM GAS  C:\Users\jupac\AppData\Local\Temp\ccEXxjja.s 			page 26


 668 0078 24       		.byte	36
 669 0079 10       		.byte	16
 670 007a 25       		.byte	37
 671 007b 31       		.byte	49
 672 007c 26       		.byte	38
 673 007d 81       		.byte	-127
 674 007e 28       		.byte	40
 675 007f 40       		.byte	64
 676 0080 2A       		.byte	42
 677 0081 01       		.byte	1
 678 0082 2C       		.byte	44
 679 0083 08       		.byte	8
 680 0084 2F       		.byte	47
 681 0085 22       		.byte	34
 682 0086 37       		.byte	55
 683 0087 2A       		.byte	42
 684 0088 38       		.byte	56
 685 0089 01       		.byte	1
 686 008a 3C       		.byte	60
 687 008b 40       		.byte	64
 688 008c 3D       		.byte	61
 689 008d 2A       		.byte	42
 690 008e 3E       		.byte	62
 691 008f 80       		.byte	-128
 692 0090 44       		.byte	68
 693 0091 40       		.byte	64
 694 0092 45       		.byte	69
 695 0093 14       		.byte	20
 696 0094 46       		.byte	70
 697 0095 20       		.byte	32
 698 0096 47       		.byte	71
 699 0097 40       		.byte	64
 700 0098 4E       		.byte	78
 701 0099 04       		.byte	4
 702 009a 55       		.byte	85
 703 009b 02       		.byte	2
 704 009c 57       		.byte	87
 705 009d 08       		.byte	8
 706 009e 5A       		.byte	90
 707 009f 01       		.byte	1
 708 00a0 5C       		.byte	92
 709 00a1 10       		.byte	16
 710 00a2 60       		.byte	96
 711 00a3 04       		.byte	4
 712 00a4 61       		.byte	97
 713 00a5 40       		.byte	64
 714 00a6 63       		.byte	99
 715 00a7 40       		.byte	64
 716 00a8 6C       		.byte	108
 717 00a9 20       		.byte	32
 718 00aa 6D       		.byte	109
 719 00ab 10       		.byte	16
 720 00ac 6E       		.byte	110
 721 00ad 10       		.byte	16
 722 00ae 6F       		.byte	111
 723 00af 01       		.byte	1
 724 00b0 77       		.byte	119
ARM GAS  C:\Users\jupac\AppData\Local\Temp\ccEXxjja.s 			page 27


 725 00b1 2A       		.byte	42
 726 00b2 84       		.byte	-124
 727 00b3 40       		.byte	64
 728 00b4 87       		.byte	-121
 729 00b5 60       		.byte	96
 730 00b6 89       		.byte	-119
 731 00b7 01       		.byte	1
 732 00b8 C0       		.byte	-64
 733 00b9 FE       		.byte	-2
 734 00ba C2       		.byte	-62
 735 00bb EA       		.byte	-22
 736 00bc C4       		.byte	-60
 737 00bd F2       		.byte	-14
 738 00be CA       		.byte	-54
 739 00bf 70       		.byte	112
 740 00c0 CC       		.byte	-52
 741 00c1 E0       		.byte	-32
 742 00c2 CE       		.byte	-50
 743 00c3 F1       		.byte	-15
 744 00c4 D0       		.byte	-48
 745 00c5 F0       		.byte	-16
 746 00c6 D2       		.byte	-46
 747 00c7 20       		.byte	32
 748 00c8 D6       		.byte	-42
 749 00c9 21       		.byte	33
 750 00ca D8       		.byte	-40
 751 00cb 0D       		.byte	13
 752 00cc E2       		.byte	-30
 753 00cd 20       		.byte	32
 754 00ce 01       		.byte	1
 755 00cf 01       		.byte	1
 756 00d0 02       		.byte	2
 757 00d1 08       		.byte	8
 758 00d2 03       		.byte	3
 759 00d3 0A       		.byte	10
 760 00d4 04       		.byte	4
 761 00d5 13       		.byte	19
 762 00d6 06       		.byte	6
 763 00d7 04       		.byte	4
 764 00d8 08       		.byte	8
 765 00d9 80       		.byte	-128
 766 00da 09       		.byte	9
 767 00db 13       		.byte	19
 768 00dc 0A       		.byte	10
 769 00dd 20       		.byte	32
 770 00de 10       		.byte	16
 771 00df 0A       		.byte	10
 772 00e0 11       		.byte	17
 773 00e1 10       		.byte	16
 774 00e2 12       		.byte	18
 775 00e3 14       		.byte	20
 776 00e4 14       		.byte	20
 777 00e5 20       		.byte	32
 778 00e6 15       		.byte	21
 779 00e7 02       		.byte	2
 780 00e8 16       		.byte	22
 781 00e9 C0       		.byte	-64
ARM GAS  C:\Users\jupac\AppData\Local\Temp\ccEXxjja.s 			page 28


 782 00ea 17       		.byte	23
 783 00eb 09       		.byte	9
 784 00ec 18       		.byte	24
 785 00ed E0       		.byte	-32
 786 00ee 1C       		.byte	28
 787 00ef 40       		.byte	64
 788 00f0 1E       		.byte	30
 789 00f1 20       		.byte	32
 790 00f2 20       		.byte	32
 791 00f3 13       		.byte	19
 792 00f4 22       		.byte	34
 793 00f5 0C       		.byte	12
 794 00f6 25       		.byte	37
 795 00f7 13       		.byte	19
 796 00f8 26       		.byte	38
 797 00f9 15       		.byte	21
 798 00fa 28       		.byte	40
 799 00fb E0       		.byte	-32
 800 00fc 2B       		.byte	43
 801 00fd 04       		.byte	4
 802 00fe 2C       		.byte	44
 803 00ff 03       		.byte	3
 804 0100 2E       		.byte	46
 805 0101 14       		.byte	20
 806 0102 30       		.byte	48
 807 0103 10       		.byte	16
 808 0104 31       		.byte	49
 809 0105 0C       		.byte	12
 810 0106 32       		.byte	50
 811 0107 E0       		.byte	-32
 812 0108 33       		.byte	51
 813 0109 10       		.byte	16
 814 010a 34       		.byte	52
 815 010b 0F       		.byte	15
 816 010c 35       		.byte	53
 817 010d 03       		.byte	3
 818 010e 3A       		.byte	58
 819 010f 20       		.byte	32
 820 0110 3E       		.byte	62
 821 0111 01       		.byte	1
 822 0112 3F       		.byte	63
 823 0113 01       		.byte	1
 824 0114 40       		.byte	64
 825 0115 42       		.byte	66
 826 0116 41       		.byte	65
 827 0117 06       		.byte	6
 828 0118 46       		.byte	70
 829 0119 0B       		.byte	11
 830 011a 47       		.byte	71
 831 011b CE       		.byte	-50
 832 011c 48       		.byte	72
 833 011d 34       		.byte	52
 834 011e 49       		.byte	73
 835 011f FF       		.byte	-1
 836 0120 4A       		.byte	74
 837 0121 FF       		.byte	-1
 838 0122 4B       		.byte	75
ARM GAS  C:\Users\jupac\AppData\Local\Temp\ccEXxjja.s 			page 29


 839 0123 FF       		.byte	-1
 840 0124 4E       		.byte	78
 841 0125 F0       		.byte	-16
 842 0126 4F       		.byte	79
 843 0127 44       		.byte	68
 844 0128 50       		.byte	80
 845 0129 0C       		.byte	12
 846 012a 54       		.byte	84
 847 012b 01       		.byte	1
 848 012c 58       		.byte	88
 849 012d 04       		.byte	4
 850 012e 59       		.byte	89
 851 012f 04       		.byte	4
 852 0130 5A       		.byte	90
 853 0131 04       		.byte	4
 854 0132 5B       		.byte	91
 855 0133 04       		.byte	4
 856 0134 5F       		.byte	95
 857 0135 01       		.byte	1
 858 0136 66       		.byte	102
 859 0137 C0       		.byte	-64
 860 0138 6A       		.byte	106
 861 0139 40       		.byte	64
 862 013a 6B       		.byte	107
 863 013b 02       		.byte	2
 864 013c 82       		.byte	-126
 865 013d 03       		.byte	3
 866 013e 84       		.byte	-124
 867 013f 10       		.byte	16
 868 0140 85       		.byte	-123
 869 0141 80       		.byte	-128
 870 0142 86       		.byte	-122
 871 0143 AC       		.byte	-84
 872 0144 87       		.byte	-121
 873 0145 13       		.byte	19
 874 0146 8F       		.byte	-113
 875 0147 0C       		.byte	12
 876 0148 90       		.byte	-112
 877 0149 DC       		.byte	-36
 878 014a 92       		.byte	-110
 879 014b 22       		.byte	34
 880 014c 95       		.byte	-107
 881 014d 2C       		.byte	44
 882 014e 97       		.byte	-105
 883 014f 43       		.byte	67
 884 0150 98       		.byte	-104
 885 0151 0C       		.byte	12
 886 0152 99       		.byte	-103
 887 0153 71       		.byte	113
 888 0154 9A       		.byte	-102
 889 0155 71       		.byte	113
 890 0156 9B       		.byte	-101
 891 0157 06       		.byte	6
 892 0158 9C       		.byte	-100
 893 0159 14       		.byte	20
 894 015a 9F       		.byte	-97
 895 015b 08       		.byte	8
ARM GAS  C:\Users\jupac\AppData\Local\Temp\ccEXxjja.s 			page 30


 896 015c A0       		.byte	-96
 897 015d 10       		.byte	16
 898 015e A2       		.byte	-94
 899 015f 40       		.byte	64
 900 0160 A9       		.byte	-87
 901 0161 71       		.byte	113
 902 0162 AA       		.byte	-86
 903 0163 20       		.byte	32
 904 0164 AB       		.byte	-85
 905 0165 0E       		.byte	14
 906 0166 AC       		.byte	-84
 907 0167 09       		.byte	9
 908 0168 AE       		.byte	-82
 909 0169 D0       		.byte	-48
 910 016a B1       		.byte	-79
 911 016b C0       		.byte	-64
 912 016c B3       		.byte	-77
 913 016d 0F       		.byte	15
 914 016e B4       		.byte	-76
 915 016f E0       		.byte	-32
 916 0170 B5       		.byte	-75
 917 0171 30       		.byte	48
 918 0172 B6       		.byte	-74
 919 0173 1F       		.byte	31
 920 0174 B9       		.byte	-71
 921 0175 22       		.byte	34
 922 0176 BA       		.byte	-70
 923 0177 20       		.byte	32
 924 0178 BB       		.byte	-69
 925 0179 08       		.byte	8
 926 017a BF       		.byte	-65
 927 017b 10       		.byte	16
 928 017c C0       		.byte	-64
 929 017d 02       		.byte	2
 930 017e C5       		.byte	-59
 931 017f 40       		.byte	64
 932 0180 C9       		.byte	-55
 933 0181 FF       		.byte	-1
 934 0182 CA       		.byte	-54
 935 0183 07       		.byte	7
 936 0184 CB       		.byte	-53
 937 0185 FF       		.byte	-1
 938 0186 CC       		.byte	-52
 939 0187 40       		.byte	64
 940 0188 CD       		.byte	-51
 941 0189 20       		.byte	32
 942 018a CE       		.byte	-50
 943 018b F0       		.byte	-16
 944 018c CF       		.byte	-49
 945 018d 05       		.byte	5
 946 018e D0       		.byte	-48
 947 018f 08       		.byte	8
 948 0190 D8       		.byte	-40
 949 0191 04       		.byte	4
 950 0192 D9       		.byte	-39
 951 0193 04       		.byte	4
 952 0194 DA       		.byte	-38
ARM GAS  C:\Users\jupac\AppData\Local\Temp\ccEXxjja.s 			page 31


 953 0195 04       		.byte	4
 954 0196 DF       		.byte	-33
 955 0197 01       		.byte	1
 956 0198 E0       		.byte	-32
 957 0199 40       		.byte	64
 958 019a E1       		.byte	-31
 959 019b A8       		.byte	-88
 960 019c E2       		.byte	-30
 961 019d 40       		.byte	64
 962 019e E3       		.byte	-29
 963 019f 20       		.byte	32
 964 01a0 00       		.byte	0
 965 01a1 01       		.byte	1
 966 01a2 03       		.byte	3
 967 01a3 20       		.byte	32
 968 01a4 04       		.byte	4
 969 01a5 04       		.byte	4
 970 01a6 07       		.byte	7
 971 01a7 84       		.byte	-124
 972 01a8 09       		.byte	9
 973 01a9 40       		.byte	64
 974 01aa 0A       		.byte	10
 975 01ab 48       		.byte	72
 976 01ac 0C       		.byte	12
 977 01ad 20       		.byte	32
 978 01ae 0E       		.byte	14
 979 01af 60       		.byte	96
 980 01b0 0F       		.byte	15
 981 01b1 01       		.byte	1
 982 01b2 10       		.byte	16
 983 01b3 80       		.byte	-128
 984 01b4 12       		.byte	18
 985 01b5 04       		.byte	4
 986 01b6 13       		.byte	19
 987 01b7 80       		.byte	-128
 988 01b8 14       		.byte	20
 989 01b9 40       		.byte	64
 990 01ba 15       		.byte	21
 991 01bb 18       		.byte	24
 992 01bc 16       		.byte	22
 993 01bd 01       		.byte	1
 994 01be 18       		.byte	24
 995 01bf 05       		.byte	5
 996 01c0 19       		.byte	25
 997 01c1 10       		.byte	16
 998 01c2 1A       		.byte	26
 999 01c3 08       		.byte	8
 1000 01c4 1C       		.byte	28
 1001 01c5 40       		.byte	64
 1002 01c6 1E       		.byte	30
 1003 01c7 20       		.byte	32
 1004 01c8 1F       		.byte	31
 1005 01c9 28       		.byte	40
 1006 01ca 21       		.byte	33
 1007 01cb 20       		.byte	32
 1008 01cc 22       		.byte	34
 1009 01cd 08       		.byte	8
ARM GAS  C:\Users\jupac\AppData\Local\Temp\ccEXxjja.s 			page 32


 1010 01ce 23       		.byte	35
 1011 01cf C0       		.byte	-64
 1012 01d0 25       		.byte	37
 1013 01d1 04       		.byte	4
 1014 01d2 27       		.byte	39
 1015 01d3 4C       		.byte	76
 1016 01d4 29       		.byte	41
 1017 01d5 10       		.byte	16
 1018 01d6 2C       		.byte	44
 1019 01d7 20       		.byte	32
 1020 01d8 2F       		.byte	47
 1021 01d9 08       		.byte	8
 1022 01da 30       		.byte	48
 1023 01db 80       		.byte	-128
 1024 01dc 32       		.byte	50
 1025 01dd 08       		.byte	8
 1026 01de 33       		.byte	51
 1027 01df 20       		.byte	32
 1028 01e0 37       		.byte	55
 1029 01e1 09       		.byte	9
 1030 01e2 38       		.byte	56
 1031 01e3 08       		.byte	8
 1032 01e4 3B       		.byte	59
 1033 01e5 40       		.byte	64
 1034 01e6 3E       		.byte	62
 1035 01e7 10       		.byte	16
 1036 01e8 3F       		.byte	63
 1037 01e9 01       		.byte	1
 1038 01ea 41       		.byte	65
 1039 01eb 20       		.byte	32
 1040 01ec 44       		.byte	68
 1041 01ed 40       		.byte	64
 1042 01ee 46       		.byte	70
 1043 01ef 04       		.byte	4
 1044 01f0 48       		.byte	72
 1045 01f1 80       		.byte	-128
 1046 01f2 4E       		.byte	78
 1047 01f3 04       		.byte	4
 1048 01f4 50       		.byte	80
 1049 01f5 04       		.byte	4
 1050 01f6 51       		.byte	81
 1051 01f7 04       		.byte	4
 1052 01f8 52       		.byte	82
 1053 01f9 04       		.byte	4
 1054 01fa 54       		.byte	84
 1055 01fb 05       		.byte	5
 1056 01fc 55       		.byte	85
 1057 01fd 40       		.byte	64
 1058 01fe 56       		.byte	86
 1059 01ff 01       		.byte	1
 1060 0200 5C       		.byte	92
 1061 0201 60       		.byte	96
 1062 0202 5D       		.byte	93
 1063 0203 08       		.byte	8
 1064 0204 5F       		.byte	95
 1065 0205 02       		.byte	2
 1066 0206 80       		.byte	-128
ARM GAS  C:\Users\jupac\AppData\Local\Temp\ccEXxjja.s 			page 33


 1067 0207 48       		.byte	72
 1068 0208 83       		.byte	-125
 1069 0209 01       		.byte	1
 1070 020a 84       		.byte	-124
 1071 020b 25       		.byte	37
 1072 020c 87       		.byte	-121
 1073 020d 02       		.byte	2
 1074 020e 88       		.byte	-120
 1075 020f 40       		.byte	64
 1076 0210 8B       		.byte	-117
 1077 0211 20       		.byte	32
 1078 0212 8E       		.byte	-114
 1079 0213 48       		.byte	72
 1080 0214 91       		.byte	-111
 1081 0215 10       		.byte	16
 1082 0216 92       		.byte	-110
 1083 0217 10       		.byte	16
 1084 0218 94       		.byte	-108
 1085 0219 81       		.byte	-127
 1086 021a 99       		.byte	-103
 1087 021b 08       		.byte	8
 1088 021c 9B       		.byte	-101
 1089 021d 01       		.byte	1
 1090 021e 9F       		.byte	-97
 1091 021f 44       		.byte	68
 1092 0220 A0       		.byte	-96
 1093 0221 20       		.byte	32
 1094 0222 A4       		.byte	-92
 1095 0223 0C       		.byte	12
 1096 0224 A5       		.byte	-91
 1097 0225 04       		.byte	4
 1098 0226 A6       		.byte	-90
 1099 0227 10       		.byte	16
 1100 0228 C0       		.byte	-64
 1101 0229 7C       		.byte	124
 1102 022a C2       		.byte	-62
 1103 022b FB       		.byte	-5
 1104 022c C4       		.byte	-60
 1105 022d FB       		.byte	-5
 1106 022e CA       		.byte	-54
 1107 022f 64       		.byte	100
 1108 0230 CC       		.byte	-52
 1109 0231 CE       		.byte	-50
 1110 0232 CE       		.byte	-50
 1111 0233 AA       		.byte	-86
 1112 0234 D0       		.byte	-48
 1113 0235 A4       		.byte	-92
 1114 0236 D2       		.byte	-46
 1115 0237 20       		.byte	32
 1116 0238 D6       		.byte	-42
 1117 0239 F0       		.byte	-16
 1118 023a 86       		.byte	-122
 1119 023b 40       		.byte	64
 1120 023c 8A       		.byte	-118
 1121 023d 01       		.byte	1
 1122 023e E6       		.byte	-26
 1123 023f 40       		.byte	64
ARM GAS  C:\Users\jupac\AppData\Local\Temp\ccEXxjja.s 			page 34


 1124 0240 0A       		.byte	10
 1125 0241 10       		.byte	16
 1126 0242 5A       		.byte	90
 1127 0243 02       		.byte	2
 1128 0244 6E       		.byte	110
 1129 0245 80       		.byte	-128
 1130 0246 82       		.byte	-126
 1131 0247 10       		.byte	16
 1132 0248 92       		.byte	-110
 1133 0249 02       		.byte	2
 1134 024a A2       		.byte	-94
 1135 024b 40       		.byte	64
 1136 024c C2       		.byte	-62
 1137 024d 10       		.byte	16
 1138 024e D6       		.byte	-42
 1139 024f 40       		.byte	64
 1140 0250 DA       		.byte	-38
 1141 0251 80       		.byte	-128
 1142 0252 E0       		.byte	-32
 1143 0253 80       		.byte	-128
 1144 0254 10       		.byte	16
 1145 0255 01       		.byte	1
 1146 0256 11       		.byte	17
 1147 0257 01       		.byte	1
 1148              		.type	cy_cfg_addr_table.4910, %object
 1149              		.size	cy_cfg_addr_table.4910, 32
 1150              	cy_cfg_addr_table.4910:
 1151 0258 03000F40 		.word	1074724867
 1152 025c 14300F40 		.word	1074737172
 1153 0260 40310F40 		.word	1074737472
 1154 0264 69320F40 		.word	1074737769
 1155 0268 4D330F40 		.word	1074737997
 1156 026c 03400F40 		.word	1074741251
 1157 0270 0A410F40 		.word	1074741514
 1158 0274 02600F40 		.word	1074749442
 1159              		.type	BS_UDB_0_1_1_CONFIG_VAL.4922, %object
 1160              		.size	BS_UDB_0_1_1_CONFIG_VAL.4922, 128
 1161              	BS_UDB_0_1_1_CONFIG_VAL.4922:
 1162 0278 0F       		.byte	15
 1163 0279 3C       		.byte	60
 1164 027a F0       		.byte	-16
 1165 027b 42       		.byte	66
 1166 027c 00       		.byte	0
 1167 027d 00       		.byte	0
 1168 027e F3       		.byte	-13
 1169 027f 03       		.byte	3
 1170 0280 82       		.byte	-126
 1171 0281 7F       		.byte	127
 1172 0282 00       		.byte	0
 1173 0283 00       		.byte	0
 1174 0284 41       		.byte	65
 1175 0285 3C       		.byte	60
 1176 0286 00       		.byte	0
 1177 0287 41       		.byte	65
 1178 0288 00       		.byte	0
 1179 0289 10       		.byte	16
 1180 028a 00       		.byte	0
ARM GAS  C:\Users\jupac\AppData\Local\Temp\ccEXxjja.s 			page 35


 1181 028b 00       		.byte	0
 1182 028c C3       		.byte	-61
 1183 028d 08       		.byte	8
 1184 028e 00       		.byte	0
 1185 028f 00       		.byte	0
 1186 0290 FF       		.byte	-1
 1187 0291 18       		.byte	24
 1188 0292 00       		.byte	0
 1189 0293 00       		.byte	0
 1190 0294 1C       		.byte	28
 1191 0295 00       		.byte	0
 1192 0296 E3       		.byte	-29
 1193 0297 00       		.byte	0
 1194 0298 08       		.byte	8
 1195 0299 00       		.byte	0
 1196 029a 00       		.byte	0
 1197 029b 00       		.byte	0
 1198 029c 04       		.byte	4
 1199 029d 67       		.byte	103
 1200 029e 00       		.byte	0
 1201 029f 18       		.byte	24
 1202 02a0 0C       		.byte	12
 1203 02a1 04       		.byte	4
 1204 02a2 00       		.byte	0
 1205 02a3 00       		.byte	0
 1206 02a4 F3       		.byte	-13
 1207 02a5 00       		.byte	0
 1208 02a6 0C       		.byte	12
 1209 02a7 04       		.byte	4
 1210 02a8 2C       		.byte	44
 1211 02a9 1F       		.byte	31
 1212 02aa 1C       		.byte	28
 1213 02ab 20       		.byte	32
 1214 02ac 0F       		.byte	15
 1215 02ad 00       		.byte	0
 1216 02ae C0       		.byte	-64
 1217 02af 40       		.byte	64
 1218 02b0 00       		.byte	0
 1219 02b1 80       		.byte	-128
 1220 02b2 22       		.byte	34
 1221 02b3 22       		.byte	34
 1222 02b4 00       		.byte	0
 1223 02b5 00       		.byte	0
 1224 02b6 00       		.byte	0
 1225 02b7 04       		.byte	4
 1226 02b8 43       		.byte	67
 1227 02b9 02       		.byte	2
 1228 02ba 06       		.byte	6
 1229 02bb 00       		.byte	0
 1230 02bc 01       		.byte	1
 1231 02bd 00       		.byte	0
 1232 02be 00       		.byte	0
 1233 02bf CE       		.byte	-50
 1234 02c0 30       		.byte	48
 1235 02c1 FF       		.byte	-1
 1236 02c2 FF       		.byte	-1
 1237 02c3 FF       		.byte	-1
ARM GAS  C:\Users\jupac\AppData\Local\Temp\ccEXxjja.s 			page 36


 1238 02c4 62       		.byte	98
 1239 02c5 A0       		.byte	-96
 1240 02c6 F0       		.byte	-16
 1241 02c7 41       		.byte	65
 1242 02c8 0C       		.byte	12
 1243 02c9 00       		.byte	0
 1244 02ca 00       		.byte	0
 1245 02cb 00       		.byte	0
 1246 02cc 00       		.byte	0
 1247 02cd 00       		.byte	0
 1248 02ce 02       		.byte	2
 1249 02cf 11       		.byte	17
 1250 02d0 04       		.byte	4
 1251 02d1 04       		.byte	4
 1252 02d2 04       		.byte	4
 1253 02d3 04       		.byte	4
 1254 02d4 00       		.byte	0
 1255 02d5 00       		.byte	0
 1256 02d6 00       		.byte	0
 1257 02d7 01       		.byte	1
 1258 02d8 00       		.byte	0
 1259 02d9 00       		.byte	0
 1260 02da 00       		.byte	0
 1261 02db 00       		.byte	0
 1262 02dc 00       		.byte	0
 1263 02dd 00       		.byte	0
 1264 02de 40       		.byte	64
 1265 02df 02       		.byte	2
 1266 02e0 00       		.byte	0
 1267 02e1 10       		.byte	16
 1268 02e2 30       		.byte	48
 1269 02e3 10       		.byte	16
 1270 02e4 00       		.byte	0
 1271 02e5 10       		.byte	16
 1272 02e6 10       		.byte	16
 1273 02e7 12       		.byte	18
 1274 02e8 00       		.byte	0
 1275 02e9 00       		.byte	0
 1276 02ea 00       		.byte	0
 1277 02eb 00       		.byte	0
 1278 02ec 00       		.byte	0
 1279 02ed 00       		.byte	0
 1280 02ee 00       		.byte	0
 1281 02ef 00       		.byte	0
 1282 02f0 00       		.byte	0
 1283 02f1 00       		.byte	0
 1284 02f2 00       		.byte	0
 1285 02f3 00       		.byte	0
 1286 02f4 00       		.byte	0
 1287 02f5 00       		.byte	0
 1288 02f6 00       		.byte	0
 1289 02f7 00       		.byte	0
 1290              		.text
 1291              	.Letext0:
 1292              		.file 2 "c:\\program files (x86)\\cypress\\psoc creator\\4.4\\psoc creator\\import\\gnu\\arm\\5.4.
 1293              		.file 3 "Generated_Source\\PSoC4\\cytypes.h"
 1294              		.file 4 "Generated_Source\\PSoC4\\CyLFClk.h"
ARM GAS  C:\Users\jupac\AppData\Local\Temp\ccEXxjja.s 			page 37


 1295              		.file 5 "Generated_Source\\PSoC4\\CyLib.h"