ARM GAS  C:\Users\jupac\AppData\Local\Temp\cctDRBvI.s 			page 1


   1              		.syntax unified
   2              		.cpu cortex-m0
   3              		.fpu softvfp
   4              		.eabi_attribute 20, 1
   5              		.eabi_attribute 21, 1
   6              		.eabi_attribute 23, 3
   7              		.eabi_attribute 24, 1
   8              		.eabi_attribute 25, 1
   9              		.eabi_attribute 26, 1
  10              		.eabi_attribute 30, 1
  11              		.eabi_attribute 34, 0
  12              		.eabi_attribute 18, 4
  13              		.thumb
  14              		.syntax unified
  15              		.file	"BLE.c"
  16              		.text
  17              	.Ltext0:
  18              		.cfi_sections	.debug_frame
  19              		.section	.text.CyBle_Init,"ax",%progbits
  20              		.align	2
  21              		.global	CyBle_Init
  22              		.code	16
  23              		.thumb_func
  24              		.type	CyBle_Init, %function
  25              	CyBle_Init:
  26              	.LFB2:
  27              		.file 1 "Generated_Source\\PSoC4\\BLE.c"
   1:Generated_Source\PSoC4/BLE.c **** /***************************************************************************//**
   2:Generated_Source\PSoC4/BLE.c **** * \file CYBLE.c
   3:Generated_Source\PSoC4/BLE.c **** * \version 3.66
   4:Generated_Source\PSoC4/BLE.c **** * 
   5:Generated_Source\PSoC4/BLE.c **** * \brief
   6:Generated_Source\PSoC4/BLE.c **** *  This file contains the source code for the Common APIs of the BLE Component.
   7:Generated_Source\PSoC4/BLE.c **** * 
   8:Generated_Source\PSoC4/BLE.c **** ********************************************************************************
   9:Generated_Source\PSoC4/BLE.c **** * \copyright
  10:Generated_Source\PSoC4/BLE.c **** * Copyright 2014-2020, Cypress Semiconductor Corporation.  All rights reserved.
  11:Generated_Source\PSoC4/BLE.c **** * You may use this file only in accordance with the license, terms, conditions,
  12:Generated_Source\PSoC4/BLE.c **** * disclaimers, and limitations in the end user license agreement accompanying
  13:Generated_Source\PSoC4/BLE.c **** * the software package with which this file was provided.
  14:Generated_Source\PSoC4/BLE.c **** *******************************************************************************/
  15:Generated_Source\PSoC4/BLE.c **** 
  16:Generated_Source\PSoC4/BLE.c **** #include "BLE_eventHandler.h"
  17:Generated_Source\PSoC4/BLE.c **** #include "BLE_HAL_PVT.h"
  18:Generated_Source\PSoC4/BLE.c **** #include <stdlib.h>
  19:Generated_Source\PSoC4/BLE.c **** 
  20:Generated_Source\PSoC4/BLE.c **** 
  21:Generated_Source\PSoC4/BLE.c **** /***************************************
  22:Generated_Source\PSoC4/BLE.c **** * Function Prototypes
  23:Generated_Source\PSoC4/BLE.c **** ***************************************/
  24:Generated_Source\PSoC4/BLE.c **** 
  25:Generated_Source\PSoC4/BLE.c **** #if(CYBLE_GATT_ROLE_SERVER)
  26:Generated_Source\PSoC4/BLE.c ****     #if(CYBLE_GAP_ROLE_PERIPHERAL)
  27:Generated_Source\PSoC4/BLE.c ****         static void CyBle_ChangeAdLocalName(const char8 name[], uint8 dest);
  28:Generated_Source\PSoC4/BLE.c ****     #endif /* (CYBLE_GAP_ROLE_PERIPHERAL) */
  29:Generated_Source\PSoC4/BLE.c **** #endif /* (CYBLE_GATT_ROLE_SERVER) */
  30:Generated_Source\PSoC4/BLE.c ****     
ARM GAS  C:\Users\jupac\AppData\Local\Temp\cctDRBvI.s 			page 2


  31:Generated_Source\PSoC4/BLE.c **** 
  32:Generated_Source\PSoC4/BLE.c **** /***************************************
  33:Generated_Source\PSoC4/BLE.c **** * Global Variables
  34:Generated_Source\PSoC4/BLE.c **** ***************************************/
  35:Generated_Source\PSoC4/BLE.c **** 
  36:Generated_Source\PSoC4/BLE.c **** /* Indicates whether the BLE has been initialized. The variable is initialized to
  37:Generated_Source\PSoC4/BLE.c ****    0 and set to 1 the first time CyBle_Start() is called. This allows the component
  38:Generated_Source\PSoC4/BLE.c ****    to restart without reinitialization after the first call to the CyBle_Start() 
  39:Generated_Source\PSoC4/BLE.c ****    routine. If reinitialization of the component is required, the variable should 
  40:Generated_Source\PSoC4/BLE.c ****    be set to 0 before the CyBle_Start() routine is called. Alternatively, the BLE
  41:Generated_Source\PSoC4/BLE.c ****    can be reinitialized by calling the CyBle_Init() function.
  42:Generated_Source\PSoC4/BLE.c **** */
  43:Generated_Source\PSoC4/BLE.c **** uint8  cyBle_initVar = 0u;
  44:Generated_Source\PSoC4/BLE.c **** 
  45:Generated_Source\PSoC4/BLE.c **** /* Allocate RAM memory for stack. This buffer could be reused by application when 
  46:Generated_Source\PSoC4/BLE.c ****    BLE component is stopped. For export mode buffer is allocated in heap.
  47:Generated_Source\PSoC4/BLE.c **** */
  48:Generated_Source\PSoC4/BLE.c **** #if(CYBLE_SHARING_MODE_EXPORT)
  49:Generated_Source\PSoC4/BLE.c ****     
  50:Generated_Source\PSoC4/BLE.c **** uint8 *cyBle_stackMemoryRam = NULL;
  51:Generated_Source\PSoC4/BLE.c **** 
  52:Generated_Source\PSoC4/BLE.c **** #else
  53:Generated_Source\PSoC4/BLE.c **** 
  54:Generated_Source\PSoC4/BLE.c **** CYBLE_CYALIGNED_BEGIN CY_NOINIT uint8 cyBle_stackMemoryRam[CYBLE_STACK_RAM_SIZE] CYBLE_CYALIGNED_EN
  55:Generated_Source\PSoC4/BLE.c **** 
  56:Generated_Source\PSoC4/BLE.c **** #endif  /* CYBLE_SHARING_MODE_EXPORT */
  57:Generated_Source\PSoC4/BLE.c **** 
  58:Generated_Source\PSoC4/BLE.c **** #if(CYBLE_GAP_ROLE_PERIPHERAL || CYBLE_GAP_ROLE_BROADCASTER)
  59:Generated_Source\PSoC4/BLE.c **** 
  60:Generated_Source\PSoC4/BLE.c **** 
  61:Generated_Source\PSoC4/BLE.c **** 
  62:Generated_Source\PSoC4/BLE.c **** #endif /* CYBLE_GAP_ROLE_PERIPHERAL || CYBLE_GAP_ROLE_BROADCASTER */
  63:Generated_Source\PSoC4/BLE.c **** 
  64:Generated_Source\PSoC4/BLE.c **** #if(CYBLE_GAP_ROLE_CENTRAL)
  65:Generated_Source\PSoC4/BLE.c ****     
  66:Generated_Source\PSoC4/BLE.c **** CYBLE_GAPC_CONN_PARAM_T cyBle_connectionParameters;
  67:Generated_Source\PSoC4/BLE.c **** 
  68:Generated_Source\PSoC4/BLE.c **** /* Connecting timeout is set to 30 seconds in CyBle_Init function. 
  69:Generated_Source\PSoC4/BLE.c ****    Not zero value starts timer in CyBle_GapcConnectDevice() API fucntion.
  70:Generated_Source\PSoC4/BLE.c **** */
  71:Generated_Source\PSoC4/BLE.c **** uint16 cyBle_connectingTimeout;
  72:Generated_Source\PSoC4/BLE.c ****     
  73:Generated_Source\PSoC4/BLE.c **** #endif /* CYBLE_GAP_ROLE_CENTRAL */
  74:Generated_Source\PSoC4/BLE.c **** 
  75:Generated_Source\PSoC4/BLE.c **** #if(CYBLE_GAP_ROLE_CENTRAL || CYBLE_GAP_ROLE_OBSERVER)
  76:Generated_Source\PSoC4/BLE.c ****     
  77:Generated_Source\PSoC4/BLE.c **** /* This variable of type CYBLE_GAPC_DISC_INFO_T is present only when  
  78:Generated_Source\PSoC4/BLE.c ****    the BLE component is configured for Central GAP role or Central and  
  79:Generated_Source\PSoC4/BLE.c ****    Peripheral GAP role. It contains the Scan settings entered in the  
  80:Generated_Source\PSoC4/BLE.c ****    customizer. This variable can be used by advanced users to change Scan  
  81:Generated_Source\PSoC4/BLE.c ****    settings in runtime.
  82:Generated_Source\PSoC4/BLE.c **** */
  83:Generated_Source\PSoC4/BLE.c **** CYBLE_GAPC_DISC_INFO_T cyBle_discoveryInfo =
  84:Generated_Source\PSoC4/BLE.c **** {
  85:Generated_Source\PSoC4/BLE.c ****     0x00u,      /* discProcedure */
  86:Generated_Source\PSoC4/BLE.c ****     0x00u,      /* scanType */
  87:Generated_Source\PSoC4/BLE.c ****     0x0320u,    /* scanInterval */
ARM GAS  C:\Users\jupac\AppData\Local\Temp\cctDRBvI.s 			page 3


  88:Generated_Source\PSoC4/BLE.c ****     0x0320u,    /* scanWindow */
  89:Generated_Source\PSoC4/BLE.c ****     0x00u,      /* ownAddrType */
  90:Generated_Source\PSoC4/BLE.c ****     0x00u,      /* scanFilterPolicy */
  91:Generated_Source\PSoC4/BLE.c ****     0x0000u,    /* scanTO */
  92:Generated_Source\PSoC4/BLE.c ****     0x00u,      /* filterDuplicates */
  93:Generated_Source\PSoC4/BLE.c **** };
  94:Generated_Source\PSoC4/BLE.c ****     
  95:Generated_Source\PSoC4/BLE.c **** #endif /* CYBLE_GAP_ROLE_CENTRAL || CYBLE_GAP_ROLE_OBSERVER */
  96:Generated_Source\PSoC4/BLE.c **** 
  97:Generated_Source\PSoC4/BLE.c **** #if((CYBLE_GAP_ROLE_PERIPHERAL || CYBLE_GAP_ROLE_CENTRAL) && (CYBLE_BONDING_REQUIREMENT == CYBLE_BO
  98:Generated_Source\PSoC4/BLE.c **** 
  99:Generated_Source\PSoC4/BLE.c **** uint8 cyBle_peerBonding;
 100:Generated_Source\PSoC4/BLE.c **** uint8 cyBle_pendingFlashWrite;
 101:Generated_Source\PSoC4/BLE.c ****     
 102:Generated_Source\PSoC4/BLE.c **** #if(CYBLE_GATT_DB_CCCD_COUNT != 0u)
 103:Generated_Source\PSoC4/BLE.c ****     static uint8 cyBle_pendingFlashClearCccdHandle;
 104:Generated_Source\PSoC4/BLE.c **** #endif /* CYBLE_GATT_DB_CCCD_COUNT != 0u */
 105:Generated_Source\PSoC4/BLE.c ****     
 106:Generated_Source\PSoC4/BLE.c **** #endif  /* (CYBLE_BONDING_REQUIREMENT == CYBLE_BONDING_YES) */
 107:Generated_Source\PSoC4/BLE.c **** 
 108:Generated_Source\PSoC4/BLE.c **** CYBLE_CALLBACK_T CyBle_ApplCallback;
 109:Generated_Source\PSoC4/BLE.c **** CYBLE_GAP_BD_ADDR_T cyBle_deviceAddress = {{0x00u, 0x00u, 0x00u, 0x50u, 0xA0u, 0x00u}, 0x00u };
 110:Generated_Source\PSoC4/BLE.c **** CYBLE_GAP_BD_ADDR_T * cyBle_sflashDeviceAddress = CYBLE_SFLASH_DEVICE_ADDRESS_PTR;
 111:Generated_Source\PSoC4/BLE.c **** 
 112:Generated_Source\PSoC4/BLE.c **** 
 113:Generated_Source\PSoC4/BLE.c **** /******************************************************************************
 114:Generated_Source\PSoC4/BLE.c **** * Function Name: CyBle_Init
 115:Generated_Source\PSoC4/BLE.c **** ***************************************************************************//**
 116:Generated_Source\PSoC4/BLE.c **** *
 117:Generated_Source\PSoC4/BLE.c **** *   Initializes the component with the parameters set in the customizer.
 118:Generated_Source\PSoC4/BLE.c **** * 
 119:Generated_Source\PSoC4/BLE.c **** *  \return
 120:Generated_Source\PSoC4/BLE.c **** *   None
 121:Generated_Source\PSoC4/BLE.c **** * 
 122:Generated_Source\PSoC4/BLE.c **** ******************************************************************************/
 123:Generated_Source\PSoC4/BLE.c **** void CyBle_Init(void)
 124:Generated_Source\PSoC4/BLE.c **** {
  28              		.loc 1 124 0
  29              		.cfi_startproc
  30              		@ args = 0, pretend = 0, frame = 0
  31              		@ frame_needed = 0, uses_anonymous_args = 0
  32              		@ link register save eliminated.
 125:Generated_Source\PSoC4/BLE.c ****     cyBle_eventHandlerFlag = 0u;
  33              		.loc 1 125 0
  34 0000 0023     		movs	r3, #0
  35 0002 034A     		ldr	r2, .L2
  36 0004 1370     		strb	r3, [r2]
 126:Generated_Source\PSoC4/BLE.c ****     cyBle_busyStatus = CYBLE_STACK_STATE_FREE;
  37              		.loc 1 126 0
  38 0006 034A     		ldr	r2, .L2+4
  39 0008 1370     		strb	r3, [r2]
 127:Generated_Source\PSoC4/BLE.c **** 
 128:Generated_Source\PSoC4/BLE.c ****     #if(CYBLE_GAP_ROLE_PERIPHERAL || CYBLE_GAP_ROLE_BROADCASTER) 
 129:Generated_Source\PSoC4/BLE.c ****         cyBle_advertisingIntervalType = CYBLE_ADVERTISING_FAST; 
 130:Generated_Source\PSoC4/BLE.c ****     #endif /* (CYBLE_GAP_ROLE_PERIPHERAL || CYBLE_GAP_ROLE_BROADCASTER)  */
 131:Generated_Source\PSoC4/BLE.c ****     #if(CYBLE_GAP_ROLE_CENTRAL || CYBLE_GAP_ROLE_OBSERVER)
 132:Generated_Source\PSoC4/BLE.c ****         cyBle_scanningIntervalType = CYBLE_SCANNING_FAST; 
ARM GAS  C:\Users\jupac\AppData\Local\Temp\cctDRBvI.s 			page 4


  40              		.loc 1 132 0
  41 000a 034A     		ldr	r2, .L2+8
  42 000c 1370     		strb	r3, [r2]
 133:Generated_Source\PSoC4/BLE.c ****     #endif /* (CYBLE_GAP_ROLE_CENTRAL || CYBLE_GAP_ROLE_OBSERVER) */
 134:Generated_Source\PSoC4/BLE.c ****         
 135:Generated_Source\PSoC4/BLE.c ****     /* Init default connection parameters. 
 136:Generated_Source\PSoC4/BLE.c ****        Application may change it before initiating a connection */
 137:Generated_Source\PSoC4/BLE.c ****     #if(CYBLE_GAP_ROLE_CENTRAL)
 138:Generated_Source\PSoC4/BLE.c ****         cyBle_connectionParameters.scanIntv = cyBle_discoveryInfo.scanIntv;
 139:Generated_Source\PSoC4/BLE.c ****         cyBle_connectionParameters.scanWindow = cyBle_discoveryInfo.scanWindow;
 140:Generated_Source\PSoC4/BLE.c ****         cyBle_connectionParameters.ownAddrType = cyBle_discoveryInfo.ownAddrType;
 141:Generated_Source\PSoC4/BLE.c ****         cyBle_connectionParameters.initiatorFilterPolicy = cyBle_discoveryInfo.scanFilterPolicy;
 142:Generated_Source\PSoC4/BLE.c ****         cyBle_connectionParameters.connIntvMin = CYBLE_GAPC_CONNECTION_INTERVAL_MIN;
 143:Generated_Source\PSoC4/BLE.c ****         cyBle_connectionParameters.connIntvMax = CYBLE_GAPC_CONNECTION_INTERVAL_MAX;
 144:Generated_Source\PSoC4/BLE.c ****         cyBle_connectionParameters.connLatency = CYBLE_GAPC_CONNECTION_SLAVE_LATENCY;
 145:Generated_Source\PSoC4/BLE.c ****         cyBle_connectionParameters.supervisionTO = CYBLE_GAPC_CONNECTION_TIME_OUT;
 146:Generated_Source\PSoC4/BLE.c ****         cyBle_connectionParameters.minCeLength = 0x0000u;
 147:Generated_Source\PSoC4/BLE.c ****         cyBle_connectionParameters.maxCeLength = 0xFFFFu;
 148:Generated_Source\PSoC4/BLE.c ****         
 149:Generated_Source\PSoC4/BLE.c ****         cyBle_connectingTimeout = CYBLE_GAPC_CONNECTING_TIMEOUT;
 150:Generated_Source\PSoC4/BLE.c ****     #endif /* CYBLE_GAP_ROLE_CENTRAL */
 151:Generated_Source\PSoC4/BLE.c **** 
 152:Generated_Source\PSoC4/BLE.c ****     CyBle_ServiceInit();
 153:Generated_Source\PSoC4/BLE.c **** 
 154:Generated_Source\PSoC4/BLE.c ****     #if((CYBLE_GAP_ROLE_PERIPHERAL || CYBLE_GAP_ROLE_CENTRAL) && (CYBLE_BONDING_REQUIREMENT == CYBL
 155:Generated_Source\PSoC4/BLE.c ****         cyBle_pendingFlashWrite = 0u;
 156:Generated_Source\PSoC4/BLE.c ****         cyBle_peerBonding = CYBLE_GAP_BONDING_NONE;
 157:Generated_Source\PSoC4/BLE.c ****     #endif  /* (CYBLE_BONDING_REQUIREMENT == CYBLE_BONDING_YES) */
 158:Generated_Source\PSoC4/BLE.c **** 
 159:Generated_Source\PSoC4/BLE.c **** }
  43              		.loc 1 159 0
  44              		@ sp needed
  45 000e 7047     		bx	lr
  46              	.L3:
  47              		.align	2
  48              	.L2:
  49 0010 00000000 		.word	cyBle_eventHandlerFlag
  50 0014 00000000 		.word	cyBle_busyStatus
  51 0018 00000000 		.word	cyBle_scanningIntervalType
  52              		.cfi_endproc
  53              	.LFE2:
  54              		.size	CyBle_Init, .-CyBle_Init
  55              		.section	.text.CyBle_ServiceInit,"ax",%progbits
  56              		.align	2
  57              		.global	CyBle_ServiceInit
  58              		.code	16
  59              		.thumb_func
  60              		.type	CyBle_ServiceInit, %function
  61              	CyBle_ServiceInit:
  62              	.LFB3:
 160:Generated_Source\PSoC4/BLE.c **** 
 161:Generated_Source\PSoC4/BLE.c **** 
 162:Generated_Source\PSoC4/BLE.c **** /******************************************************************************
 163:Generated_Source\PSoC4/BLE.c **** * Function Name: CyBle_ServiceInit
 164:Generated_Source\PSoC4/BLE.c **** ***************************************************************************//**
 165:Generated_Source\PSoC4/BLE.c **** * 
 166:Generated_Source\PSoC4/BLE.c **** *  Initializes all included services.
ARM GAS  C:\Users\jupac\AppData\Local\Temp\cctDRBvI.s 			page 5


 167:Generated_Source\PSoC4/BLE.c **** * 
 168:Generated_Source\PSoC4/BLE.c **** * \return
 169:Generated_Source\PSoC4/BLE.c **** *  None
 170:Generated_Source\PSoC4/BLE.c **** * 
 171:Generated_Source\PSoC4/BLE.c **** ******************************************************************************/
 172:Generated_Source\PSoC4/BLE.c **** void CyBle_ServiceInit(void)
 173:Generated_Source\PSoC4/BLE.c **** {
  63              		.loc 1 173 0
  64              		.cfi_startproc
  65              		@ args = 0, pretend = 0, frame = 0
  66              		@ frame_needed = 0, uses_anonymous_args = 0
  67              		@ link register save eliminated.
 174:Generated_Source\PSoC4/BLE.c ****     #if(CYBLE_GATT_ROLE_CLIENT)
 175:Generated_Source\PSoC4/BLE.c ****         /* Check service range before clearing to support partial discovery */
 176:Generated_Source\PSoC4/BLE.c ****         if(cyBle_serverInfo[CYBLE_SRVI_GAP].range.startHandle == CYBLE_GATT_INVALID_ATTR_HANDLE_VAL
 177:Generated_Source\PSoC4/BLE.c ****         {
 178:Generated_Source\PSoC4/BLE.c ****             (void)memset(&cyBle_gapc, 0, sizeof(cyBle_gapc));
 179:Generated_Source\PSoC4/BLE.c ****         }
 180:Generated_Source\PSoC4/BLE.c ****         if(cyBle_serverInfo[CYBLE_SRVI_GATT].range.startHandle == CYBLE_GATT_INVALID_ATTR_HANDLE_VA
 181:Generated_Source\PSoC4/BLE.c ****         {
 182:Generated_Source\PSoC4/BLE.c ****             (void)memset(&cyBle_gattc, 0, sizeof(cyBle_gattc));
 183:Generated_Source\PSoC4/BLE.c ****         }
 184:Generated_Source\PSoC4/BLE.c ****     #endif /* CYBLE_GATT_ROLE_CLIENT */
 185:Generated_Source\PSoC4/BLE.c **** 
 186:Generated_Source\PSoC4/BLE.c ****    	#ifdef CYBLE_AIOS
 187:Generated_Source\PSoC4/BLE.c ****         CyBle_AiosInit();
 188:Generated_Source\PSoC4/BLE.c ****     #endif /* CYBLE_AIOS */
 189:Generated_Source\PSoC4/BLE.c **** 
 190:Generated_Source\PSoC4/BLE.c **** 	#ifdef CYBLE_ANCS
 191:Generated_Source\PSoC4/BLE.c ****         CyBle_AncsInit();
 192:Generated_Source\PSoC4/BLE.c ****     #endif /* CYBLE_ANCS */
 193:Generated_Source\PSoC4/BLE.c **** 	
 194:Generated_Source\PSoC4/BLE.c ****     #ifdef CYBLE_ANS
 195:Generated_Source\PSoC4/BLE.c ****         CyBle_AnsInit();
 196:Generated_Source\PSoC4/BLE.c ****     #endif /* CYBLE_ANS */
 197:Generated_Source\PSoC4/BLE.c ****     
 198:Generated_Source\PSoC4/BLE.c ****     #ifdef CYBLE_BAS
 199:Generated_Source\PSoC4/BLE.c ****         CyBle_BasInit();
 200:Generated_Source\PSoC4/BLE.c ****     #endif /* CYBLE_BAS */
 201:Generated_Source\PSoC4/BLE.c ****     
 202:Generated_Source\PSoC4/BLE.c ****     #ifdef CYBLE_BCS
 203:Generated_Source\PSoC4/BLE.c ****         CyBle_BcsInit();
 204:Generated_Source\PSoC4/BLE.c ****     #endif /* CYBLE_BCS */
 205:Generated_Source\PSoC4/BLE.c **** 
 206:Generated_Source\PSoC4/BLE.c ****     #ifdef CYBLE_BLS
 207:Generated_Source\PSoC4/BLE.c ****         CyBle_BlsInit();
 208:Generated_Source\PSoC4/BLE.c ****     #endif /* CYBLE_BLS */
 209:Generated_Source\PSoC4/BLE.c ****     
 210:Generated_Source\PSoC4/BLE.c ****     #ifdef CYBLE_BMS
 211:Generated_Source\PSoC4/BLE.c ****         CyBle_BmsInit();
 212:Generated_Source\PSoC4/BLE.c ****     #endif /* CYBLE_BMS */
 213:Generated_Source\PSoC4/BLE.c ****     
 214:Generated_Source\PSoC4/BLE.c ****     #ifdef CYBLE_CGMS
 215:Generated_Source\PSoC4/BLE.c ****         CyBle_CgmsInit();
 216:Generated_Source\PSoC4/BLE.c ****     #endif /* CYBLE_CGMS */
 217:Generated_Source\PSoC4/BLE.c **** 
 218:Generated_Source\PSoC4/BLE.c ****     #ifdef CYBLE_CPS
ARM GAS  C:\Users\jupac\AppData\Local\Temp\cctDRBvI.s 			page 6


 219:Generated_Source\PSoC4/BLE.c ****         CyBle_CpsInit();
 220:Generated_Source\PSoC4/BLE.c ****     #endif /* CYBLE_CPS */
 221:Generated_Source\PSoC4/BLE.c **** 
 222:Generated_Source\PSoC4/BLE.c ****     #ifdef CYBLE_CSCS
 223:Generated_Source\PSoC4/BLE.c ****         CyBle_CscsInit();
 224:Generated_Source\PSoC4/BLE.c ****     #endif /* CYBLE_CSCS */
 225:Generated_Source\PSoC4/BLE.c ****     
 226:Generated_Source\PSoC4/BLE.c ****     #ifdef CYBLE_CTS
 227:Generated_Source\PSoC4/BLE.c ****         CyBle_CtsInit();
 228:Generated_Source\PSoC4/BLE.c ****     #endif /* CYBLE_CTS */
 229:Generated_Source\PSoC4/BLE.c **** 
 230:Generated_Source\PSoC4/BLE.c ****     #ifdef CYBLE_CUSTOM
 231:Generated_Source\PSoC4/BLE.c ****         CyBle_CustomInit();
 232:Generated_Source\PSoC4/BLE.c ****     #endif /* CYBLE_CUSTOM */
 233:Generated_Source\PSoC4/BLE.c **** 
 234:Generated_Source\PSoC4/BLE.c ****     #ifdef CYBLE_DIS
 235:Generated_Source\PSoC4/BLE.c ****         CyBle_DisInit();
 236:Generated_Source\PSoC4/BLE.c ****     #endif /* CYBLE_DIS */
 237:Generated_Source\PSoC4/BLE.c **** 
 238:Generated_Source\PSoC4/BLE.c ****     #ifdef CYBLE_ESS
 239:Generated_Source\PSoC4/BLE.c ****         CyBle_EssInit();
 240:Generated_Source\PSoC4/BLE.c ****     #endif /* CYBLE_ESS */
 241:Generated_Source\PSoC4/BLE.c ****     
 242:Generated_Source\PSoC4/BLE.c ****     #ifdef CYBLE_GLS
 243:Generated_Source\PSoC4/BLE.c ****         CyBle_GlsInit();
 244:Generated_Source\PSoC4/BLE.c ****     #endif /* CYBLE_GLS */
 245:Generated_Source\PSoC4/BLE.c ****     
 246:Generated_Source\PSoC4/BLE.c ****     #ifdef CYBLE_HIDS
 247:Generated_Source\PSoC4/BLE.c ****         CyBle_HidsInit();
 248:Generated_Source\PSoC4/BLE.c ****     #endif /* CYBLE_HIDS */
 249:Generated_Source\PSoC4/BLE.c **** 
 250:Generated_Source\PSoC4/BLE.c ****     #ifdef CYBLE_HPS
 251:Generated_Source\PSoC4/BLE.c ****         CyBle_HpsInit();
 252:Generated_Source\PSoC4/BLE.c ****     #endif /* CYBLE_HPS */
 253:Generated_Source\PSoC4/BLE.c **** 
 254:Generated_Source\PSoC4/BLE.c ****     #ifdef CYBLE_HRS
 255:Generated_Source\PSoC4/BLE.c ****         CyBle_HrsInit();
 256:Generated_Source\PSoC4/BLE.c ****     #endif /* CYBLE_HRS */
 257:Generated_Source\PSoC4/BLE.c ****     
 258:Generated_Source\PSoC4/BLE.c ****     #ifdef CYBLE_HTS
 259:Generated_Source\PSoC4/BLE.c ****         CyBle_HtsInit();
 260:Generated_Source\PSoC4/BLE.c ****     #endif /* CYBLE_RSCS */
 261:Generated_Source\PSoC4/BLE.c **** 
 262:Generated_Source\PSoC4/BLE.c ****     #ifdef CYBLE_IAS
 263:Generated_Source\PSoC4/BLE.c ****         CyBle_IasInit();
 264:Generated_Source\PSoC4/BLE.c ****     #endif /* CYBLE_IAS */
 265:Generated_Source\PSoC4/BLE.c **** 
 266:Generated_Source\PSoC4/BLE.c ****     #ifdef CYBLE_IPS
 267:Generated_Source\PSoC4/BLE.c ****         CyBle_IpsInit();
 268:Generated_Source\PSoC4/BLE.c ****     #endif /* CYBLE_IPS */
 269:Generated_Source\PSoC4/BLE.c ****     
 270:Generated_Source\PSoC4/BLE.c ****     #ifdef CYBLE_LLS
 271:Generated_Source\PSoC4/BLE.c ****         CyBle_LlsInit();
 272:Generated_Source\PSoC4/BLE.c ****     #endif /* CYBLE_LLS */
 273:Generated_Source\PSoC4/BLE.c **** 
 274:Generated_Source\PSoC4/BLE.c ****     #ifdef CYBLE_LNS
 275:Generated_Source\PSoC4/BLE.c ****         CyBle_LnsInit();
ARM GAS  C:\Users\jupac\AppData\Local\Temp\cctDRBvI.s 			page 7


 276:Generated_Source\PSoC4/BLE.c ****     #endif /* CYBLE_LNS */
 277:Generated_Source\PSoC4/BLE.c ****     
 278:Generated_Source\PSoC4/BLE.c ****     #ifdef CYBLE_NDCS
 279:Generated_Source\PSoC4/BLE.c ****         CyBle_NdcsInit();
 280:Generated_Source\PSoC4/BLE.c ****     #endif /* CYBLE_NDCS */
 281:Generated_Source\PSoC4/BLE.c ****     
 282:Generated_Source\PSoC4/BLE.c ****     #ifdef CYBLE_OTS
 283:Generated_Source\PSoC4/BLE.c ****         CyBle_OtsInit();
 284:Generated_Source\PSoC4/BLE.c ****     #endif /* CYBLE_OTS */
 285:Generated_Source\PSoC4/BLE.c ****         
 286:Generated_Source\PSoC4/BLE.c ****     #ifdef CYBLE_PASS
 287:Generated_Source\PSoC4/BLE.c ****         CyBle_PassInit();
 288:Generated_Source\PSoC4/BLE.c ****     #endif /* CYBLE_PASS */
 289:Generated_Source\PSoC4/BLE.c ****     
 290:Generated_Source\PSoC4/BLE.c ****     #ifdef CYBLE_PLXS
 291:Generated_Source\PSoC4/BLE.c ****         CyBle_PlxsInit();
 292:Generated_Source\PSoC4/BLE.c ****     #endif /* CYBLE_PLXS */
 293:Generated_Source\PSoC4/BLE.c ****     
 294:Generated_Source\PSoC4/BLE.c ****     #ifdef CYBLE_RSCS
 295:Generated_Source\PSoC4/BLE.c ****         CyBle_RscsInit();
 296:Generated_Source\PSoC4/BLE.c ****     #endif /* CYBLE_RSCS */
 297:Generated_Source\PSoC4/BLE.c **** 
 298:Generated_Source\PSoC4/BLE.c ****     #ifdef CYBLE_RTUS
 299:Generated_Source\PSoC4/BLE.c ****         CyBle_RtusInit();
 300:Generated_Source\PSoC4/BLE.c ****     #endif /* CYBLE_RTUS */
 301:Generated_Source\PSoC4/BLE.c **** 
 302:Generated_Source\PSoC4/BLE.c ****     #ifdef CYBLE_SCPS
 303:Generated_Source\PSoC4/BLE.c ****         CyBle_ScpsInit();
 304:Generated_Source\PSoC4/BLE.c ****     #endif /* CYBLE_SCPS */
 305:Generated_Source\PSoC4/BLE.c ****     
 306:Generated_Source\PSoC4/BLE.c ****     #ifdef CYBLE_TPS
 307:Generated_Source\PSoC4/BLE.c ****         CyBle_TpsInit();
 308:Generated_Source\PSoC4/BLE.c ****     #endif /* CYBLE_TPS */
 309:Generated_Source\PSoC4/BLE.c ****     
 310:Generated_Source\PSoC4/BLE.c ****     #ifdef CYBLE_UDS
 311:Generated_Source\PSoC4/BLE.c ****         CyBle_UdsInit();
 312:Generated_Source\PSoC4/BLE.c ****     #endif /* CYBLE_UDS */
 313:Generated_Source\PSoC4/BLE.c **** 
 314:Generated_Source\PSoC4/BLE.c ****     #ifdef CYBLE_WPTS
 315:Generated_Source\PSoC4/BLE.c ****         CyBle_WptsInit();
 316:Generated_Source\PSoC4/BLE.c ****     #endif /* CYBLE_WPTS */
 317:Generated_Source\PSoC4/BLE.c **** 
 318:Generated_Source\PSoC4/BLE.c ****     #ifdef CYBLE_WSS
 319:Generated_Source\PSoC4/BLE.c ****         CyBle_WssInit();
 320:Generated_Source\PSoC4/BLE.c ****     #endif /* CYBLE_WSS */
 321:Generated_Source\PSoC4/BLE.c **** }
  68              		.loc 1 321 0
  69              		@ sp needed
  70 0000 7047     		bx	lr
  71              		.cfi_endproc
  72              	.LFE3:
  73              		.size	CyBle_ServiceInit, .-CyBle_ServiceInit
  74 0002 C046     		.section	.text.CyBle_Start,"ax",%progbits
  75              		.align	2
  76              		.global	CyBle_Start
  77              		.code	16
  78              		.thumb_func
ARM GAS  C:\Users\jupac\AppData\Local\Temp\cctDRBvI.s 			page 8


  79              		.type	CyBle_Start, %function
  80              	CyBle_Start:
  81              	.LFB4:
 322:Generated_Source\PSoC4/BLE.c **** 
 323:Generated_Source\PSoC4/BLE.c **** 
 324:Generated_Source\PSoC4/BLE.c **** /******************************************************************************
 325:Generated_Source\PSoC4/BLE.c **** * Function Name: CyBle_Start
 326:Generated_Source\PSoC4/BLE.c **** ***************************************************************************//**
 327:Generated_Source\PSoC4/BLE.c **** * 
 328:Generated_Source\PSoC4/BLE.c **** *  This function initializes the BLE Stack, which consists of the BLE Stack 
 329:Generated_Source\PSoC4/BLE.c **** *  Manager, BLE Controller, and BLE Host modules. It takes care of initializing
 330:Generated_Source\PSoC4/BLE.c **** *  the Profile layer, schedulers, Timer and other platform related
 331:Generated_Source\PSoC4/BLE.c **** *  resources required for the BLE component. It also registers the callback 
 332:Generated_Source\PSoC4/BLE.c **** *  function for BLE events that will be registered in the BLE stack.
 333:Generated_Source\PSoC4/BLE.c **** * 
 334:Generated_Source\PSoC4/BLE.c **** *  Note that this function does not reset the BLE Stack.
 335:Generated_Source\PSoC4/BLE.c **** * 
 336:Generated_Source\PSoC4/BLE.c **** *  For HCI-Mode of operation, this function will not initialize the BLE Host 
 337:Generated_Source\PSoC4/BLE.c **** *  module.
 338:Generated_Source\PSoC4/BLE.c **** * 
 339:Generated_Source\PSoC4/BLE.c **** *  Calling this function results in the generation of CYBLE_EVT_STACK_ON event
 340:Generated_Source\PSoC4/BLE.c **** *  on successful initialization of the BLE Stack.
 341:Generated_Source\PSoC4/BLE.c **** * 
 342:Generated_Source\PSoC4/BLE.c **** *  \param callbackFunc: Event callback function to receive events from BLE stack.
 343:Generated_Source\PSoC4/BLE.c **** *   CYBLE_CALLBACK_T is a function pointer type.
 344:Generated_Source\PSoC4/BLE.c **** * 
 345:Generated_Source\PSoC4/BLE.c **** * \return
 346:Generated_Source\PSoC4/BLE.c **** *  CYBLE_API_RESULT_T : Return value indicates if the function succeeded or 
 347:Generated_Source\PSoC4/BLE.c **** *  failed. Following are the possible error codes.
 348:Generated_Source\PSoC4/BLE.c **** * 
 349:Generated_Source\PSoC4/BLE.c **** *   <table>
 350:Generated_Source\PSoC4/BLE.c **** *  	  <tr>
 351:Generated_Source\PSoC4/BLE.c **** *       <th>Error codes</th>
 352:Generated_Source\PSoC4/BLE.c **** *       <th>Description</th>
 353:Generated_Source\PSoC4/BLE.c **** *     </tr>
 354:Generated_Source\PSoC4/BLE.c **** *     <tr>
 355:Generated_Source\PSoC4/BLE.c **** *       <td>CYBLE_ERROR_OK</td>
 356:Generated_Source\PSoC4/BLE.c **** *       <td>On successful operation.</td>
 357:Generated_Source\PSoC4/BLE.c **** *     </tr>
 358:Generated_Source\PSoC4/BLE.c **** *     <tr>
 359:Generated_Source\PSoC4/BLE.c **** *       <td>CYBLE_ERROR_INVALID_PARAMETER</td>
 360:Generated_Source\PSoC4/BLE.c **** *       <td>On passing a NULL pointer to the function. 
 361:Generated_Source\PSoC4/BLE.c **** *		</td>
 362:Generated_Source\PSoC4/BLE.c **** *     </tr>
 363:Generated_Source\PSoC4/BLE.c **** *     <tr>
 364:Generated_Source\PSoC4/BLE.c **** *       <td>CYBLE_ERROR_REPEATED_ATTEMPTS</td>
 365:Generated_Source\PSoC4/BLE.c **** *       <td>On invoking this function more than once without calling CyBle_Shutdown() 
 366:Generated_Source\PSoC4/BLE.c **** *           function between calls to this function.</td>
 367:Generated_Source\PSoC4/BLE.c **** *     </tr>
 368:Generated_Source\PSoC4/BLE.c **** *     <tr>
 369:Generated_Source\PSoC4/BLE.c **** *       <td>CYBLE_ERROR_MEMORY_ALLOCATION_FAILED</td>
 370:Generated_Source\PSoC4/BLE.c **** *       <td>There is insufficient memory available.</td>
 371:Generated_Source\PSoC4/BLE.c **** *     </tr>
 372:Generated_Source\PSoC4/BLE.c **** *   </table>
 373:Generated_Source\PSoC4/BLE.c **** * 
 374:Generated_Source\PSoC4/BLE.c **** *  \globalvars
 375:Generated_Source\PSoC4/BLE.c **** *   The CyBle_initVar variable is used to indicate initial
ARM GAS  C:\Users\jupac\AppData\Local\Temp\cctDRBvI.s 			page 9


 376:Generated_Source\PSoC4/BLE.c **** *   configuration of this component. The variable is initialized to zero (0u)
 377:Generated_Source\PSoC4/BLE.c **** *   and set to one (1u) the first time CyBle_Start() is called. This
 378:Generated_Source\PSoC4/BLE.c **** *   allows for component initialization without re-initialization in all
 379:Generated_Source\PSoC4/BLE.c **** *   subsequent calls to the CyBle_Start() routine.
 380:Generated_Source\PSoC4/BLE.c **** * 
 381:Generated_Source\PSoC4/BLE.c **** ******************************************************************************/
 382:Generated_Source\PSoC4/BLE.c **** CYBLE_API_RESULT_T CyBle_Start(CYBLE_CALLBACK_T callbackFunc)
 383:Generated_Source\PSoC4/BLE.c **** {
  82              		.loc 1 383 0
  83              		.cfi_startproc
  84              		@ args = 0, pretend = 0, frame = 48
  85              		@ frame_needed = 0, uses_anonymous_args = 0
  86              	.LVL0:
  87 0000 30B5     		push	{r4, r5, lr}
  88              		.cfi_def_cfa_offset 12
  89              		.cfi_offset 4, -12
  90              		.cfi_offset 5, -8
  91              		.cfi_offset 14, -4
  92 0002 91B0     		sub	sp, sp, #68
  93              		.cfi_def_cfa_offset 80
  94 0004 0400     		movs	r4, r0
  95              	.LVL1:
 384:Generated_Source\PSoC4/BLE.c ****     CYBLE_API_RESULT_T apiResult = CYBLE_ERROR_OK;
 385:Generated_Source\PSoC4/BLE.c ****     
 386:Generated_Source\PSoC4/BLE.c ****     #if(CYBLE_MODE_PROFILE)
 387:Generated_Source\PSoC4/BLE.c ****     
 388:Generated_Source\PSoC4/BLE.c ****     CYBLE_STK_APP_DATA_BUFF_T cyBle_stackDataBuff[CYBLE_STACK_APP_MIN_POOL] = 
  96              		.loc 1 388 0
  97 0006 1422     		movs	r2, #20
  98 0008 2249     		ldr	r1, .L9
  99 000a 0BA8     		add	r0, sp, #44
 100              	.LVL2:
 101 000c FFF7FEFF 		bl	memcpy
 102              	.LVL3:
 389:Generated_Source\PSoC4/BLE.c ****     {
 390:Generated_Source\PSoC4/BLE.c ****         {CYBLE_GATT_MTU_PLUS_L2CAP_MEM_EXT, CYBLE_GATT_MTU_BUFF_COUNT + CYBLE_GATT_MAX_ATTR_BUFF_CO
 391:Generated_Source\PSoC4/BLE.c ****         {CYBLE_L2CAP_PSM_PLUS_L2CAP_MEM_EXT, CYBLE_L2CAP_PSM_COUNT},
 392:Generated_Source\PSoC4/BLE.c ****         {CYBLE_L2CAP_CBFC_PLUS_L2CAP_MEM_EXT, 2u * CYBLE_L2CAP_LOGICAL_CHANNEL_COUNT},
 393:Generated_Source\PSoC4/BLE.c ****         {CYBLE_L2CAP_MTU_PLUS_L2CAP_MEM_EXT, CYBLE_L2CAP_LOGICAL_CHANNEL_COUNT},
 394:Generated_Source\PSoC4/BLE.c ****         {CYBLE_L2CAP_MPS_PLUS_L2CAP_MEM_EXT, CYBLE_L2CAP_LOGICAL_CHANNEL_COUNT * (CYBLE_L2CAP_MTU_M
 395:Generated_Source\PSoC4/BLE.c ****     }; 
 396:Generated_Source\PSoC4/BLE.c **** 
 397:Generated_Source\PSoC4/BLE.c ****     #endif /* CYBLE_MODE_PROFILE */
 398:Generated_Source\PSoC4/BLE.c ****     
 399:Generated_Source\PSoC4/BLE.c ****     /* If not initialized then initialize all the required hardware and software */
 400:Generated_Source\PSoC4/BLE.c ****     if(cyBle_initVar == 0u)
 103              		.loc 1 400 0
 104 0010 214B     		ldr	r3, .L9+4
 105 0012 1B78     		ldrb	r3, [r3]
 106 0014 002B     		cmp	r3, #0
 107 0016 04D1     		bne	.L6
 401:Generated_Source\PSoC4/BLE.c ****     {
 402:Generated_Source\PSoC4/BLE.c ****         CyBle_Init();
 108              		.loc 1 402 0
 109 0018 FFF7FEFF 		bl	CyBle_Init
 110              	.LVL4:
 403:Generated_Source\PSoC4/BLE.c ****         cyBle_initVar = 1u;
ARM GAS  C:\Users\jupac\AppData\Local\Temp\cctDRBvI.s 			page 10


 111              		.loc 1 403 0
 112 001c 0122     		movs	r2, #1
 113 001e 1E4B     		ldr	r3, .L9+4
 114 0020 1A70     		strb	r2, [r3]
 115              	.L6:
 404:Generated_Source\PSoC4/BLE.c ****     }
 405:Generated_Source\PSoC4/BLE.c ****     
 406:Generated_Source\PSoC4/BLE.c ****     if(callbackFunc != NULL)
 116              		.loc 1 406 0
 117 0022 002C     		cmp	r4, #0
 118 0024 32D0     		beq	.L8
 407:Generated_Source\PSoC4/BLE.c ****     {
 408:Generated_Source\PSoC4/BLE.c ****         CyBle_ApplCallback = callbackFunc;
 119              		.loc 1 408 0
 120 0026 1D4B     		ldr	r3, .L9+8
 121 0028 1C60     		str	r4, [r3]
 122              	.LBB2:
 409:Generated_Source\PSoC4/BLE.c ****         
 410:Generated_Source\PSoC4/BLE.c ****     #if(CYBLE_SHARING_MODE_EXPORT)
 411:Generated_Source\PSoC4/BLE.c ****         if(cyBle_stackMemoryRam == NULL)
 412:Generated_Source\PSoC4/BLE.c ****         {
 413:Generated_Source\PSoC4/BLE.c ****             cyBle_stackMemoryRam = (uint8 *)malloc(CYBLE_STACK_RAM_SIZE);
 414:Generated_Source\PSoC4/BLE.c ****             if(cyBle_stackMemoryRam == NULL)
 415:Generated_Source\PSoC4/BLE.c ****             {
 416:Generated_Source\PSoC4/BLE.c ****                 apiResult = CYBLE_ERROR_MEMORY_ALLOCATION_FAILED;
 417:Generated_Source\PSoC4/BLE.c ****             }
 418:Generated_Source\PSoC4/BLE.c ****         }
 419:Generated_Source\PSoC4/BLE.c ****     #endif /* CYBLE_SHARING_MODE_EXPORT */
 420:Generated_Source\PSoC4/BLE.c ****         if(apiResult == CYBLE_ERROR_OK)
 421:Generated_Source\PSoC4/BLE.c ****         {
 422:Generated_Source\PSoC4/BLE.c ****             CYBLE_DLE_CONFIG_PARAM_T dleConfigParams;
 423:Generated_Source\PSoC4/BLE.c ****             CYBLE_PRIVACY_1_2_CONFIG_PARAM_T privacyConfigParams;
 424:Generated_Source\PSoC4/BLE.c ****             CYBLE_STACK_CONFIG_PARAM_T stackConfig;
 425:Generated_Source\PSoC4/BLE.c ****             uint16 featureHeapReq;
 426:Generated_Source\PSoC4/BLE.c ****             
 427:Generated_Source\PSoC4/BLE.c ****             stackConfig.privacyConfig = &privacyConfigParams;
 123              		.loc 1 427 0
 124 002a 08AC     		add	r4, sp, #32
 125              	.LVL5:
 126 002c 05AD     		add	r5, sp, #20
 127 002e 0995     		str	r5, [sp, #36]
 428:Generated_Source\PSoC4/BLE.c ****             stackConfig.dleConfig = &dleConfigParams;
 128              		.loc 1 428 0
 129 0030 06AB     		add	r3, sp, #24
 130 0032 0893     		str	r3, [sp, #32]
 429:Generated_Source\PSoC4/BLE.c ****             
 430:Generated_Source\PSoC4/BLE.c ****             /* Configure default BLE 4.1 features and enabled 4.2 features */
 431:Generated_Source\PSoC4/BLE.c ****             stackConfig.feature_mask = CYBLE_DLE_FEATURE | CYBLE_LL_PRIVACY_FEATURE | 
 131              		.loc 1 431 0
 132 0034 0322     		movs	r2, #3
 133 0036 2281     		strh	r2, [r4, #8]
 432:Generated_Source\PSoC4/BLE.c ****                                        CYBLE_SECURE_CONN_FEATURE;
 433:Generated_Source\PSoC4/BLE.c **** 
 434:Generated_Source\PSoC4/BLE.c ****             /* Configure DLE */
 435:Generated_Source\PSoC4/BLE.c ****             dleConfigParams.dleMaxTxCapability = CYBLE_LL_MAX_TX_PAYLOAD_SIZE;
 134              		.loc 1 435 0
 135 0038 1A32     		adds	r2, r2, #26
ARM GAS  C:\Users\jupac\AppData\Local\Temp\cctDRBvI.s 			page 11


 136 003a 1A80     		strh	r2, [r3]
 436:Generated_Source\PSoC4/BLE.c ****             dleConfigParams.dleMaxRxCapability = CYBLE_LL_MAX_RX_PAYLOAD_SIZE;
 137              		.loc 1 436 0
 138 003c 5A80     		strh	r2, [r3, #2]
 437:Generated_Source\PSoC4/BLE.c ****             dleConfigParams.dleNumTxBuffer = CYBLE_LL_DEFAULT_NUM_ACL_TX_PACKETS;
 139              		.loc 1 437 0
 140 003e 193A     		subs	r2, r2, #25
 141 0040 1A71     		strb	r2, [r3, #4]
 438:Generated_Source\PSoC4/BLE.c ****         #if(CYBLE_DLE_FEATURE_ENABLED)
 439:Generated_Source\PSoC4/BLE.c ****             CyBle_EnableDleFeature();              /* Enable DLE code in stack */
 142              		.loc 1 439 0
 143 0042 FFF7FEFF 		bl	CyBle_EnableDleFeature
 144              	.LVL6:
 440:Generated_Source\PSoC4/BLE.c ****         #endif /* CYBLE_DLE_FEATURE_ENABLED */
 441:Generated_Source\PSoC4/BLE.c ****         
 442:Generated_Source\PSoC4/BLE.c ****             /* Configure LL Privacy */
 443:Generated_Source\PSoC4/BLE.c ****             privacyConfigParams.resolvingListSize = CYBLE_MAX_RESOLVABLE_DEVICES;
 145              		.loc 1 443 0
 146 0046 0823     		movs	r3, #8
 147 0048 2B70     		strb	r3, [r5]
 444:Generated_Source\PSoC4/BLE.c ****         #if(CYBLE_LL_PRIVACY_FEATURE_ENABLED)
 445:Generated_Source\PSoC4/BLE.c ****             CyBle_EnablePrivacyFeature();          /* Enable LL Privacy code in stack */
 148              		.loc 1 445 0
 149 004a FFF7FEFF 		bl	CyBle_EnablePrivacyFeature
 150              	.LVL7:
 446:Generated_Source\PSoC4/BLE.c ****         #endif /* CYBLE_LL_PRIVACY_FEATURE_ENABLED */
 447:Generated_Source\PSoC4/BLE.c **** 
 448:Generated_Source\PSoC4/BLE.c ****             apiResult = CyBle_StackSetFeatureConfig(&stackConfig, &featureHeapReq);
 151              		.loc 1 448 0
 152 004e 1621     		movs	r1, #22
 153 0050 6944     		add	r1, r1, sp
 154 0052 2000     		movs	r0, r4
 155 0054 FFF7FEFF 		bl	CyBle_StackSetFeatureConfig
 156              	.LVL8:
 157              	.LBE2:
 449:Generated_Source\PSoC4/BLE.c ****             }
 450:Generated_Source\PSoC4/BLE.c ****     
 451:Generated_Source\PSoC4/BLE.c ****         if(apiResult == CYBLE_ERROR_OK)
 158              		.loc 1 451 0
 159 0058 0028     		cmp	r0, #0
 160 005a 18D1     		bne	.L7
 452:Generated_Source\PSoC4/BLE.c ****         {
 453:Generated_Source\PSoC4/BLE.c ****         
 454:Generated_Source\PSoC4/BLE.c ****         #if(CYBLE_MODE_PROFILE)
 455:Generated_Source\PSoC4/BLE.c ****             #if(CYBLE_BONDING_REQUIREMENT == CYBLE_BONDING_YES)
 456:Generated_Source\PSoC4/BLE.c ****                 apiResult = CyBle_StackInit(&CyBle_EventHandler, cyBle_stackMemoryRam, 
 161              		.loc 1 456 0
 162 005c 104B     		ldr	r3, .L9+12
 163 005e 0293     		str	r3, [sp, #8]
 164 0060 104B     		ldr	r3, .L9+16
 165 0062 0193     		str	r3, [sp, #4]
 166 0064 0523     		movs	r3, #5
 167 0066 0093     		str	r3, [sp]
 168 0068 0BAB     		add	r3, sp, #44
 169 006a DF22     		movs	r2, #223
 170 006c 1201     		lsls	r2, r2, #4
 171 006e 0E49     		ldr	r1, .L9+20
ARM GAS  C:\Users\jupac\AppData\Local\Temp\cctDRBvI.s 			page 12


 172 0070 0E48     		ldr	r0, .L9+24
 173              	.LVL9:
 174 0072 FFF7FEFF 		bl	CyBle_StackInit
 175              	.LVL10:
 457:Generated_Source\PSoC4/BLE.c ****                     CYBLE_STACK_RAM_SIZE - CYBLE_GATT_PREPARE_WRITE_BUFF_LEN, cyBle_stackDataBuff, 
 458:Generated_Source\PSoC4/BLE.c ****                     CYBLE_STACK_APP_MIN_POOL, cyBle_flashStorage.stackFlashptr, CYBLE_STACK_FLASH_S
 459:Generated_Source\PSoC4/BLE.c ****             #else
 460:Generated_Source\PSoC4/BLE.c ****                 apiResult = CyBle_StackInit(&CyBle_EventHandler, cyBle_stackMemoryRam, 
 461:Generated_Source\PSoC4/BLE.c ****                     CYBLE_STACK_RAM_SIZE - CYBLE_GATT_PREPARE_WRITE_BUFF_LEN, cyBle_stackDataBuff, 
 462:Generated_Source\PSoC4/BLE.c ****                     CYBLE_STACK_APP_MIN_POOL, NULL, 0u);
 463:Generated_Source\PSoC4/BLE.c ****             #endif  /* CYBLE_BONDING_REQUIREMENT == CYBLE_BONDING_YES */
 464:Generated_Source\PSoC4/BLE.c ****         #else /* HCI mode */
 465:Generated_Source\PSoC4/BLE.c ****             /* The following will perform preparation to use HCI over UART or over
 466:Generated_Source\PSoC4/BLE.c ****                software. But the following fucntions will not initialize the HCI
 467:Generated_Source\PSoC4/BLE.c ****                Transport. This will be done as part of Stack initialization, so
 468:Generated_Source\PSoC4/BLE.c ****                the functions should be called prior CyBle_StackInit().
 469:Generated_Source\PSoC4/BLE.c ****             */
 470:Generated_Source\PSoC4/BLE.c ****             #if (CYBLE_HCI_TYPE == CYBLE_HCI_OVER_UART)
 471:Generated_Source\PSoC4/BLE.c ****                 CyBle_HciUartTransportEnable();
 472:Generated_Source\PSoC4/BLE.c ****             #else
 473:Generated_Source\PSoC4/BLE.c ****                 CyBle_HciSoftTransportEnable();
 474:Generated_Source\PSoC4/BLE.c ****             #endif /* (CYBLE_HCI_TYPE == CYBLE_HCI_OVER_UART) */
 475:Generated_Source\PSoC4/BLE.c ****             /* This will initialize BLE stack for HCI mode operation */
 476:Generated_Source\PSoC4/BLE.c ****             apiResult = CyBle_StackInit(&CyBle_EventHandler, cyBle_stackMemoryRam, CYBLE_STACK_RAM_
 477:Generated_Source\PSoC4/BLE.c ****                 NULL, 0u, NULL, 0u);
 478:Generated_Source\PSoC4/BLE.c ****         #endif /* CYBLE_MODE_PROFILE */
 479:Generated_Source\PSoC4/BLE.c **** 
 480:Generated_Source\PSoC4/BLE.c ****             if(apiResult == CYBLE_ERROR_OK)
 176              		.loc 1 480 0
 177 0076 0028     		cmp	r0, #0
 178 0078 09D1     		bne	.L7
 481:Generated_Source\PSoC4/BLE.c ****             {
 482:Generated_Source\PSoC4/BLE.c ****                 CyBle_SetState(CYBLE_STATE_INITIALIZING);
 179              		.loc 1 482 0
 180 007a 0122     		movs	r2, #1
 181 007c 0C4B     		ldr	r3, .L9+28
 182 007e 1A70     		strb	r2, [r3]
 483:Generated_Source\PSoC4/BLE.c ****                 
 484:Generated_Source\PSoC4/BLE.c ****             #if (CYBLE_GATT_ROLE_CLIENT)
 485:Generated_Source\PSoC4/BLE.c ****                 CyBle_SetClientState(CYBLE_CLIENT_STATE_DISCONNECTED);
 486:Generated_Source\PSoC4/BLE.c ****             #endif /* CYBLE_GATT_ROLE_CLIENT */
 487:Generated_Source\PSoC4/BLE.c ****                 
 488:Generated_Source\PSoC4/BLE.c ****             #if(CYBLE_GATT_ROLE_SERVER)
 489:Generated_Source\PSoC4/BLE.c ****                 apiResult = CyBle_GattsDbRegister(cyBle_gattDB, CYBLE_GATT_DB_INDEX_COUNT, CYBLE_GA
 183              		.loc 1 489 0
 184 0080 0932     		adds	r2, r2, #9
 185 0082 1A21     		movs	r1, #26
 186 0084 0B48     		ldr	r0, .L9+32
 187              	.LVL11:
 188 0086 FFF7FEFF 		bl	CyBle_GattsDbRegister
 189              	.LVL12:
 190 008a 00E0     		b	.L7
 191              	.LVL13:
 192              	.L8:
 490:Generated_Source\PSoC4/BLE.c ****             #endif /* CYBLE_GATT_ROLE_SERVER */
 491:Generated_Source\PSoC4/BLE.c ****             }
 492:Generated_Source\PSoC4/BLE.c ****         }
ARM GAS  C:\Users\jupac\AppData\Local\Temp\cctDRBvI.s 			page 13


 493:Generated_Source\PSoC4/BLE.c ****     }
 494:Generated_Source\PSoC4/BLE.c ****     else
 495:Generated_Source\PSoC4/BLE.c ****     {
 496:Generated_Source\PSoC4/BLE.c ****         apiResult = CYBLE_ERROR_INVALID_PARAMETER;
 193              		.loc 1 496 0
 194 008c 0120     		movs	r0, #1
 195              	.LVL14:
 196              	.L7:
 497:Generated_Source\PSoC4/BLE.c ****     }
 498:Generated_Source\PSoC4/BLE.c **** 
 499:Generated_Source\PSoC4/BLE.c ****     return (apiResult);
 500:Generated_Source\PSoC4/BLE.c **** }
 197              		.loc 1 500 0
 198 008e 11B0     		add	sp, sp, #68
 199              		@ sp needed
 200 0090 30BD     		pop	{r4, r5, pc}
 201              	.L10:
 202 0092 C046     		.align	2
 203              	.L9:
 204 0094 00000000 		.word	.LANCHOR0
 205 0098 00000000 		.word	.LANCHOR1
 206 009c 00000000 		.word	CyBle_ApplCallback
 207 00a0 79020000 		.word	633
 208 00a4 00000000 		.word	cyBle_flashStorage
 209 00a8 00000000 		.word	.LANCHOR2
 210 00ac 00000000 		.word	CyBle_EventHandler
 211 00b0 00000000 		.word	cyBle_state
 212 00b4 00000000 		.word	cyBle_gattDB
 213              		.cfi_endproc
 214              	.LFE4:
 215              		.size	CyBle_Start, .-CyBle_Start
 216              		.section	.text.CyBle_Stop,"ax",%progbits
 217              		.align	2
 218              		.global	CyBle_Stop
 219              		.code	16
 220              		.thumb_func
 221              		.type	CyBle_Stop, %function
 222              	CyBle_Stop:
 223              	.LFB5:
 501:Generated_Source\PSoC4/BLE.c **** 
 502:Generated_Source\PSoC4/BLE.c **** 
 503:Generated_Source\PSoC4/BLE.c **** /******************************************************************************
 504:Generated_Source\PSoC4/BLE.c **** * Function Name: CyBle_Stop
 505:Generated_Source\PSoC4/BLE.c **** ***************************************************************************//**
 506:Generated_Source\PSoC4/BLE.c **** * 
 507:Generated_Source\PSoC4/BLE.c **** *  This function stops any ongoing operation in the BLE Stack and forces the 
 508:Generated_Source\PSoC4/BLE.c **** *  BLE Stack to shut down. The only function that can be called after calling
 509:Generated_Source\PSoC4/BLE.c **** *  this function is CyBle_Start(). 
 510:Generated_Source\PSoC4/BLE.c **** * 
 511:Generated_Source\PSoC4/BLE.c **** * \return
 512:Generated_Source\PSoC4/BLE.c **** *  None
 513:Generated_Source\PSoC4/BLE.c **** * 
 514:Generated_Source\PSoC4/BLE.c **** ******************************************************************************/
 515:Generated_Source\PSoC4/BLE.c **** void CyBle_Stop(void)
 516:Generated_Source\PSoC4/BLE.c **** {
 224              		.loc 1 516 0
 225              		.cfi_startproc
ARM GAS  C:\Users\jupac\AppData\Local\Temp\cctDRBvI.s 			page 14


 226              		@ args = 0, pretend = 0, frame = 0
 227              		@ frame_needed = 0, uses_anonymous_args = 0
 228 0000 10B5     		push	{r4, lr}
 229              		.cfi_def_cfa_offset 8
 230              		.cfi_offset 4, -8
 231              		.cfi_offset 14, -4
 517:Generated_Source\PSoC4/BLE.c ****     CyBle_Shutdown();                         /* Stop all ongoing activities */
 232              		.loc 1 517 0
 233 0002 FFF7FEFF 		bl	CyBle_Shutdown
 234              	.LVL15:
 518:Generated_Source\PSoC4/BLE.c ****     CyBle_SetState(CYBLE_STATE_STOPPED);
 235              		.loc 1 518 0
 236 0006 0022     		movs	r2, #0
 237 0008 014B     		ldr	r3, .L12
 238 000a 1A70     		strb	r2, [r3]
 519:Generated_Source\PSoC4/BLE.c ****     #if(CYBLE_SHARING_MODE_EXPORT)
 520:Generated_Source\PSoC4/BLE.c ****         if(cyBle_stackMemoryRam != NULL)
 521:Generated_Source\PSoC4/BLE.c ****         {
 522:Generated_Source\PSoC4/BLE.c ****             free(cyBle_stackMemoryRam);
 523:Generated_Source\PSoC4/BLE.c ****         }
 524:Generated_Source\PSoC4/BLE.c ****     #endif /* CYBLE_SHARING_MODE_EXPORT */
 525:Generated_Source\PSoC4/BLE.c **** }
 239              		.loc 1 525 0
 240              		@ sp needed
 241 000c 10BD     		pop	{r4, pc}
 242              	.L13:
 243 000e C046     		.align	2
 244              	.L12:
 245 0010 00000000 		.word	cyBle_state
 246              		.cfi_endproc
 247              	.LFE5:
 248              		.size	CyBle_Stop, .-CyBle_Stop
 249              		.section	.text.CyBle_GapcStartScan,"ax",%progbits
 250              		.align	2
 251              		.global	CyBle_GapcStartScan
 252              		.code	16
 253              		.thumb_func
 254              		.type	CyBle_GapcStartScan, %function
 255              	CyBle_GapcStartScan:
 256              	.LFB6:
 526:Generated_Source\PSoC4/BLE.c **** 
 527:Generated_Source\PSoC4/BLE.c **** 
 528:Generated_Source\PSoC4/BLE.c **** #if((CYBLE_GAP_ROLE_PERIPHERAL || CYBLE_GAP_ROLE_CENTRAL) && (CYBLE_BONDING_REQUIREMENT == CYBLE_BO
 529:Generated_Source\PSoC4/BLE.c **** 
 530:Generated_Source\PSoC4/BLE.c ****     
 531:Generated_Source\PSoC4/BLE.c **** /******************************************************************************
 532:Generated_Source\PSoC4/BLE.c **** * Function Name: CyBle_StoreBondingData
 533:Generated_Source\PSoC4/BLE.c **** ***************************************************************************//**
 534:Generated_Source\PSoC4/BLE.c **** * 
 535:Generated_Source\PSoC4/BLE.c **** *  This function writes the new bonding data from RAM to the dedicated Flash 
 536:Generated_Source\PSoC4/BLE.c **** *  location as defined by the component. It performs data comparing between RAM
 537:Generated_Source\PSoC4/BLE.c **** *  and Flash before writing to Flash. If there is no change between RAM and Flash
 538:Generated_Source\PSoC4/BLE.c **** *  data, then no write is performed. It writes only one flash row in one call.
 539:Generated_Source\PSoC4/BLE.c **** *  Application should keep calling this function till it return CYBLE_ERROR_OK. 
 540:Generated_Source\PSoC4/BLE.c **** *  This function is available only when Bonding requirement is selected in
 541:Generated_Source\PSoC4/BLE.c **** *  Security settings.    
 542:Generated_Source\PSoC4/BLE.c **** * 
ARM GAS  C:\Users\jupac\AppData\Local\Temp\cctDRBvI.s 			page 15


 543:Generated_Source\PSoC4/BLE.c **** *  \param isForceWrite:  If value is set to 0, then stack will check if flash write 
 544:Generated_Source\PSoC4/BLE.c **** *                 is permissible. 
 545:Generated_Source\PSoC4/BLE.c **** *  
 546:Generated_Source\PSoC4/BLE.c **** * \return
 547:Generated_Source\PSoC4/BLE.c **** *  Return value is of type CYBLE_API_RESULT_T.
 548:Generated_Source\PSoC4/BLE.c **** *
 549:Generated_Source\PSoC4/BLE.c **** *   Errors codes                         | Description
 550:Generated_Source\PSoC4/BLE.c **** *   ----------------------------------   | ------------------------------------
 551:Generated_Source\PSoC4/BLE.c **** *   CYBLE_ERROR_OK                       | On successful operation
 552:Generated_Source\PSoC4/BLE.c **** *   CYBLE_ERROR_FLASH_WRITE_NOT_PERMITED | Flash Write is not complete
 553:Generated_Source\PSoC4/BLE.c **** *   CYBLE_ERROR_INVALID_PARAMETER        | Invalid input parameter  
 554:Generated_Source\PSoC4/BLE.c **** *   CYBLE_ERROR_FLASH_WRITE              | Error in flash Write	
 555:Generated_Source\PSoC4/BLE.c ****     
 556:Generated_Source\PSoC4/BLE.c **** *  \sideeffect
 557:Generated_Source\PSoC4/BLE.c **** *   For BLE devices with 128K of Flash memory this function will automatically 
 558:Generated_Source\PSoC4/BLE.c **** *   modify the clock settings for the device.
 559:Generated_Source\PSoC4/BLE.c **** *   Writing to flash requires changes to be done to the IMO (set to 48 MHz)
 560:Generated_Source\PSoC4/BLE.c **** *   and HFCLK (source set to IMO) settings. The configuration is restored before
 561:Generated_Source\PSoC4/BLE.c **** *   returning. This will impact the operation of most of the hardware in the
 562:Generated_Source\PSoC4/BLE.c **** *   device.
 563:Generated_Source\PSoC4/BLE.c **** * 
 564:Generated_Source\PSoC4/BLE.c **** *  \globalvars
 565:Generated_Source\PSoC4/BLE.c **** *   The cyBle_pendingFlashWrite variable is used to detect status
 566:Generated_Source\PSoC4/BLE.c **** *   of pending write to flash operation for stack data and CCCD.
 567:Generated_Source\PSoC4/BLE.c **** *   This function automatically clears pending bits after write operation 
 568:Generated_Source\PSoC4/BLE.c **** *   complete.
 569:Generated_Source\PSoC4/BLE.c **** *     
 570:Generated_Source\PSoC4/BLE.c **** ******************************************************************************/
 571:Generated_Source\PSoC4/BLE.c **** CYBLE_API_RESULT_T CyBle_StoreBondingData(uint8 isForceWrite)
 572:Generated_Source\PSoC4/BLE.c **** {
 573:Generated_Source\PSoC4/BLE.c ****     CYBLE_API_RESULT_T apiResult = CYBLE_ERROR_OK;
 574:Generated_Source\PSoC4/BLE.c ****     
 575:Generated_Source\PSoC4/BLE.c ****     /* Store Stack data */
 576:Generated_Source\PSoC4/BLE.c ****     if((cyBle_pendingFlashWrite & CYBLE_PENDING_STACK_FLASH_WRITE_BIT) != 0u)
 577:Generated_Source\PSoC4/BLE.c ****     {
 578:Generated_Source\PSoC4/BLE.c ****         apiResult = CyBle_StoreStackData(isForceWrite);
 579:Generated_Source\PSoC4/BLE.c ****         if(apiResult == CYBLE_ERROR_OK)
 580:Generated_Source\PSoC4/BLE.c ****         {
 581:Generated_Source\PSoC4/BLE.c ****             cyBle_pendingFlashWrite &= (uint8)~CYBLE_PENDING_STACK_FLASH_WRITE_BIT;
 582:Generated_Source\PSoC4/BLE.c ****             /* Change apiResult if there are more pending data to store */
 583:Generated_Source\PSoC4/BLE.c ****             if((cyBle_pendingFlashWrite & CYBLE_PENDING_CCCD_FLASH_WRITE_BIT) != 0u)
 584:Generated_Source\PSoC4/BLE.c ****             {
 585:Generated_Source\PSoC4/BLE.c ****                 apiResult = CYBLE_ERROR_FLASH_WRITE_NOT_PERMITED;
 586:Generated_Source\PSoC4/BLE.c ****             }
 587:Generated_Source\PSoC4/BLE.c ****         }
 588:Generated_Source\PSoC4/BLE.c ****     }
 589:Generated_Source\PSoC4/BLE.c **** #if(CYBLE_GATT_DB_CCCD_COUNT != 0u)
 590:Generated_Source\PSoC4/BLE.c ****     /* Store CCCD values */
 591:Generated_Source\PSoC4/BLE.c ****     if( ((apiResult == CYBLE_ERROR_OK) || (isForceWrite != 0u)) && 
 592:Generated_Source\PSoC4/BLE.c ****         ((cyBle_pendingFlashWrite & CYBLE_PENDING_CCCD_FLASH_WRITE_BIT) != 0u) &&
 593:Generated_Source\PSoC4/BLE.c ****         (cyBle_connHandle.bdHandle <= CYBLE_GAP_MAX_BONDED_DEVICE))
 594:Generated_Source\PSoC4/BLE.c ****     {
 595:Generated_Source\PSoC4/BLE.c ****         apiResult = CyBle_StoreAppData(cyBle_attValuesCCCD, cyBle_flashStorage.attValuesCCCDFlashMe
 596:Generated_Source\PSoC4/BLE.c ****                         cyBle_connHandle.bdHandle], CYBLE_GATT_DB_CCCD_COUNT, isForceWrite);
 597:Generated_Source\PSoC4/BLE.c ****         if(apiResult == CYBLE_ERROR_OK)
 598:Generated_Source\PSoC4/BLE.c ****         {
 599:Generated_Source\PSoC4/BLE.c ****             cyBle_pendingFlashWrite &= (uint8)~CYBLE_PENDING_CCCD_FLASH_WRITE_BIT;
ARM GAS  C:\Users\jupac\AppData\Local\Temp\cctDRBvI.s 			page 16


 600:Generated_Source\PSoC4/BLE.c ****         }
 601:Generated_Source\PSoC4/BLE.c ****     }
 602:Generated_Source\PSoC4/BLE.c ****     /* Clear requested CCCD values */
 603:Generated_Source\PSoC4/BLE.c ****     if( ((apiResult == CYBLE_ERROR_OK) || (isForceWrite != 0u)) && 
 604:Generated_Source\PSoC4/BLE.c ****         ((cyBle_pendingFlashWrite & CYBLE_PENDING_CCCD_FLASH_CLEAR_MASK) != 0u) )
 605:Generated_Source\PSoC4/BLE.c ****     {
 606:Generated_Source\PSoC4/BLE.c ****         if((cyBle_pendingFlashWrite & CYBLE_PENDING_CCCD_FLASH_CLEAR_ALL_BIT) != 0u)
 607:Generated_Source\PSoC4/BLE.c ****         {
 608:Generated_Source\PSoC4/BLE.c ****             /* Remove cccd values for all bonded devices */
 609:Generated_Source\PSoC4/BLE.c ****             uint8 defaultValuesCCCD[CYBLE_GAP_MAX_BONDED_DEVICE + 1u][CYBLE_GATT_DB_CCCD_COUNT];
 610:Generated_Source\PSoC4/BLE.c ****             
 611:Generated_Source\PSoC4/BLE.c ****             (void)memset(defaultValuesCCCD, 0, sizeof(defaultValuesCCCD));
 612:Generated_Source\PSoC4/BLE.c **** 
 613:Generated_Source\PSoC4/BLE.c ****             apiResult = CyBle_StoreAppData((uint8 *)defaultValuesCCCD, 
 614:Generated_Source\PSoC4/BLE.c ****                 (const uint8 *)cyBle_flashStorage.attValuesCCCDFlashMemory, sizeof(defaultValuesCCC
 615:Generated_Source\PSoC4/BLE.c ****             if(apiResult == CYBLE_ERROR_OK)
 616:Generated_Source\PSoC4/BLE.c ****             {
 617:Generated_Source\PSoC4/BLE.c ****                 cyBle_pendingFlashWrite &= (uint8)~CYBLE_PENDING_CCCD_FLASH_CLEAR_ALL_BIT;
 618:Generated_Source\PSoC4/BLE.c ****             }
 619:Generated_Source\PSoC4/BLE.c ****         }
 620:Generated_Source\PSoC4/BLE.c ****         else /* Remove cccd values for particular device */
 621:Generated_Source\PSoC4/BLE.c ****         {
 622:Generated_Source\PSoC4/BLE.c ****             uint8 defaultValuesCCCD[CYBLE_GATT_DB_CCCD_COUNT] = {0u};
 623:Generated_Source\PSoC4/BLE.c ****             
 624:Generated_Source\PSoC4/BLE.c ****             apiResult = CyBle_StoreAppData(defaultValuesCCCD, cyBle_flashStorage.attValuesCCCDFlash
 625:Generated_Source\PSoC4/BLE.c ****                                     cyBle_pendingFlashClearCccdHandle], CYBLE_GATT_DB_CCCD_COUNT, i
 626:Generated_Source\PSoC4/BLE.c ****             if(apiResult == CYBLE_ERROR_OK)
 627:Generated_Source\PSoC4/BLE.c ****             {
 628:Generated_Source\PSoC4/BLE.c ****                 cyBle_pendingFlashWrite &= (uint8)~CYBLE_PENDING_CCCD_FLASH_CLEAR_BIT;
 629:Generated_Source\PSoC4/BLE.c ****             }
 630:Generated_Source\PSoC4/BLE.c ****         }
 631:Generated_Source\PSoC4/BLE.c ****     }
 632:Generated_Source\PSoC4/BLE.c **** #endif /* CYBLE_GATT_DB_CCCD_COUNT != 0u */
 633:Generated_Source\PSoC4/BLE.c ****     return(apiResult);
 634:Generated_Source\PSoC4/BLE.c **** }
 635:Generated_Source\PSoC4/BLE.c **** 
 636:Generated_Source\PSoC4/BLE.c **** 
 637:Generated_Source\PSoC4/BLE.c **** /******************************************************************************
 638:Generated_Source\PSoC4/BLE.c **** * Function Name: CyBle_GapRemoveBondedDevice
 639:Generated_Source\PSoC4/BLE.c **** ***************************************************************************//**
 640:Generated_Source\PSoC4/BLE.c **** * 
 641:Generated_Source\PSoC4/BLE.c **** *  This function marks the device untrusted. It removes the bonding information
 642:Generated_Source\PSoC4/BLE.c **** *  of the device including CCCD values. This function removes device from the
 643:Generated_Source\PSoC4/BLE.c **** *  white list also when autopopulate white list with bonded devices option is
 644:Generated_Source\PSoC4/BLE.c **** *  enabled.
 645:Generated_Source\PSoC4/BLE.c **** * 
 646:Generated_Source\PSoC4/BLE.c **** *  This function is available only when Bonding requirement is selected in
 647:Generated_Source\PSoC4/BLE.c **** *  Security settings.    
 648:Generated_Source\PSoC4/BLE.c **** *
 649:Generated_Source\PSoC4/BLE.c **** *  \param bdAddr: Pointer to peer device address, of type CYBLE_GAP_BD_ADDR_T.
 650:Generated_Source\PSoC4/BLE.c **** *                 If device address is set to 0, then all devices shall be
 651:Generated_Source\PSoC4/BLE.c **** *                 removed from trusted list and white list.
 652:Generated_Source\PSoC4/BLE.c **** *
 653:Generated_Source\PSoC4/BLE.c **** * \return
 654:Generated_Source\PSoC4/BLE.c **** *  CYBLE_API_RESULT_T : Return value indicates if the function succeeded or
 655:Generated_Source\PSoC4/BLE.c **** *  failed. Following are the possible error codes.
 656:Generated_Source\PSoC4/BLE.c **** *
ARM GAS  C:\Users\jupac\AppData\Local\Temp\cctDRBvI.s 			page 17


 657:Generated_Source\PSoC4/BLE.c **** *   Errors codes                     | Description
 658:Generated_Source\PSoC4/BLE.c **** *   ---------------------------------| ------------------------------------
 659:Generated_Source\PSoC4/BLE.c **** *   CYBLE_ERROR_OK                   | On successful operation.
 660:Generated_Source\PSoC4/BLE.c **** *   CYBLE_ERROR_INVALID_PARAMETER    | On specifying NULL as input parameter for 'bdAddr'.
 661:Generated_Source\PSoC4/BLE.c **** *   CYBLE_ERROR_INVALID_OPERATION    | Whitelist is already in use or there is pending write to fla
 662:Generated_Source\PSoC4/BLE.c **** *   CYBLE_ERROR_NO_DEVICE_ENTITY     | Device does not exist in the bond list.
 663:Generated_Source\PSoC4/BLE.c **** *
 664:Generated_Source\PSoC4/BLE.c **** *  \globalvars
 665:Generated_Source\PSoC4/BLE.c **** *   The bdHandle is set in cyBle_pendingFlashWrite variable to indicate that
 666:Generated_Source\PSoC4/BLE.c **** *   data should be stored to flash by CyBle_StoreBondingData() afterwards. 
 667:Generated_Source\PSoC4/BLE.c **** *     
 668:Generated_Source\PSoC4/BLE.c **** ******************************************************************************/
 669:Generated_Source\PSoC4/BLE.c **** CYBLE_API_RESULT_T CyBle_GapRemoveBondedDevice(CYBLE_GAP_BD_ADDR_T* bdAddr)
 670:Generated_Source\PSoC4/BLE.c **** {
 671:Generated_Source\PSoC4/BLE.c ****     CYBLE_API_RESULT_T apiResult = CYBLE_ERROR_OK;
 672:Generated_Source\PSoC4/BLE.c ****     
 673:Generated_Source\PSoC4/BLE.c ****     if(cyBle_pendingFlashWrite == 0u)
 674:Generated_Source\PSoC4/BLE.c ****     {
 675:Generated_Source\PSoC4/BLE.c ****         
 676:Generated_Source\PSoC4/BLE.c ****     #if(CYBLE_GATT_DB_CCCD_COUNT != 0u)
 677:Generated_Source\PSoC4/BLE.c ****         /* Request to clear CCCD values which will be done by CyBle_StoreBondingData() */
 678:Generated_Source\PSoC4/BLE.c ****         uint8 bDevHandle;
 679:Generated_Source\PSoC4/BLE.c ****         CYBLE_GAP_BD_ADDR_T invalidBdAddr = {{0u,0u,0u,0u,0u,0u}, 0u};
 680:Generated_Source\PSoC4/BLE.c **** 
 681:Generated_Source\PSoC4/BLE.c ****         if(memcmp(((uint8 *) &(bdAddr->bdAddr)), ((uint8 *) &(invalidBdAddr.bdAddr)), CYBLE_GAP_BD_
 682:Generated_Source\PSoC4/BLE.c **** 	    {
 683:Generated_Source\PSoC4/BLE.c ****             /* Request to remove all bonded devices by CyBle_StoreBondingData() */
 684:Generated_Source\PSoC4/BLE.c ****             cyBle_pendingFlashWrite |= CYBLE_PENDING_CCCD_FLASH_CLEAR_ALL_BIT;
 685:Generated_Source\PSoC4/BLE.c ****         }
 686:Generated_Source\PSoC4/BLE.c ****         else
 687:Generated_Source\PSoC4/BLE.c ****         {
 688:Generated_Source\PSoC4/BLE.c ****             /* Get the BD handle from Address */
 689:Generated_Source\PSoC4/BLE.c ****             apiResult = CyBle_GapGetPeerBdHandle(&bDevHandle, bdAddr);
 690:Generated_Source\PSoC4/BLE.c ****             if(apiResult == CYBLE_ERROR_OK)
 691:Generated_Source\PSoC4/BLE.c ****             {
 692:Generated_Source\PSoC4/BLE.c ****                 /* Store BD handle to clear cccd values by CyBle_StoreBondingData() */
 693:Generated_Source\PSoC4/BLE.c ****                 cyBle_pendingFlashWrite |= CYBLE_PENDING_CCCD_FLASH_CLEAR_BIT;
 694:Generated_Source\PSoC4/BLE.c ****                 cyBle_pendingFlashClearCccdHandle = bDevHandle;
 695:Generated_Source\PSoC4/BLE.c ****             }
 696:Generated_Source\PSoC4/BLE.c ****         }
 697:Generated_Source\PSoC4/BLE.c ****     #endif /* CYBLE_GATT_DB_CCCD_COUNT != 0u */
 698:Generated_Source\PSoC4/BLE.c ****         if(apiResult == CYBLE_ERROR_OK)
 699:Generated_Source\PSoC4/BLE.c ****         {
 700:Generated_Source\PSoC4/BLE.c ****             apiResult = CyBle_GapRemoveDeviceFromWhiteList(bdAddr);
 701:Generated_Source\PSoC4/BLE.c ****         }
 702:Generated_Source\PSoC4/BLE.c ****     }
 703:Generated_Source\PSoC4/BLE.c ****     else
 704:Generated_Source\PSoC4/BLE.c ****     {
 705:Generated_Source\PSoC4/BLE.c ****         apiResult = CYBLE_ERROR_INVALID_OPERATION;
 706:Generated_Source\PSoC4/BLE.c ****     }
 707:Generated_Source\PSoC4/BLE.c ****     
 708:Generated_Source\PSoC4/BLE.c ****     return(apiResult);
 709:Generated_Source\PSoC4/BLE.c **** }
 710:Generated_Source\PSoC4/BLE.c **** 
 711:Generated_Source\PSoC4/BLE.c **** 
 712:Generated_Source\PSoC4/BLE.c **** #endif /* (CYBLE_GAP_ROLE_PERIPHERAL || CYBLE_GAP_ROLE_CENTRAL) && (CYBLE_BONDING_REQUIREMENT == CY
 713:Generated_Source\PSoC4/BLE.c **** 
ARM GAS  C:\Users\jupac\AppData\Local\Temp\cctDRBvI.s 			page 18


 714:Generated_Source\PSoC4/BLE.c **** 
 715:Generated_Source\PSoC4/BLE.c **** #if(CYBLE_GAP_ROLE_PERIPHERAL || CYBLE_GAP_ROLE_BROADCASTER)
 716:Generated_Source\PSoC4/BLE.c **** 
 717:Generated_Source\PSoC4/BLE.c ****     /******************************************************************************
 718:Generated_Source\PSoC4/BLE.c ****     *  Function Name: CyBle_GappStartAdvertisement
 719:Generated_Source\PSoC4/BLE.c ****     ***************************************************************************//**
 720:Generated_Source\PSoC4/BLE.c ****     *     
 721:Generated_Source\PSoC4/BLE.c ****     *  This function is used to start the advertisement using the advertisement data 
 722:Generated_Source\PSoC4/BLE.c ****     *  set in the component customizer's GUI. After invoking this function, the 
 723:Generated_Source\PSoC4/BLE.c ****     *  device will be available for connection by the devices configured for GAP 
 724:Generated_Source\PSoC4/BLE.c ****     *  central role. It is only included if the device is configured for GAP 
 725:Generated_Source\PSoC4/BLE.c ****     *  Peripheral or GAP Peripheral + Central role.
 726:Generated_Source\PSoC4/BLE.c ****     *  
 727:Generated_Source\PSoC4/BLE.c ****     *  On start of advertisement, GAP Peripheral receives the
 728:Generated_Source\PSoC4/BLE.c ****     *  CYBLE_EVT_GAPP_ADVERTISEMENT_START_STOP event. The following events are 
 729:Generated_Source\PSoC4/BLE.c ****     *  possible on invoking this function:
 730:Generated_Source\PSoC4/BLE.c ****     *  
 731:Generated_Source\PSoC4/BLE.c ****     *  * CYBLE_EVT_GAP_DEVICE_CONNECTED - If the device connects to a GAP Central and 
 732:Generated_Source\PSoC4/BLE.c ****     *    Link Layer Privacy is disabled in component customizer.
 733:Generated_Source\PSoC4/BLE.c ****     *  * CYBLE_EVT_GAP_ENHANCE_CONN_COMPLETE - If the device connects to a GAP Central and 
 734:Generated_Source\PSoC4/BLE.c ****     *    Link Layer Privacy is enabled in component customizer.
 735:Generated_Source\PSoC4/BLE.c ****     *  * CYBLE_EVT_TIMEOUT: If no device in GAP Central mode connects to this 
 736:Generated_Source\PSoC4/BLE.c ****     *                       device within the specified timeout limit. Stack 
 737:Generated_Source\PSoC4/BLE.c ****     *                       automatically initiate stop advertising when Slow 
 738:Generated_Source\PSoC4/BLE.c ****     *                       advertising was initiated, or starts Slow advertising
 739:Generated_Source\PSoC4/BLE.c ****     *                       after Fast advertising timeout occur.
 740:Generated_Source\PSoC4/BLE.c ****     *  * CYBLE_EVT_GAPP_ADVERTISEMENT_START_STOP: If device started or stopped
 741:Generated_Source\PSoC4/BLE.c ****     *                                               advertising. Use CyBle_GetState()
 742:Generated_Source\PSoC4/BLE.c ****     *                                               to determine the state. Sequential 
 743:Generated_Source\PSoC4/BLE.c ****     *                                               advertising could be started when
 744:Generated_Source\PSoC4/BLE.c ****     *                                               CYBLE_STATE_DISCONNECTED state is
 745:Generated_Source\PSoC4/BLE.c ****     *                                               returned.
 746:Generated_Source\PSoC4/BLE.c ****     * 
 747:Generated_Source\PSoC4/BLE.c ****     *  \param advertisingIntervalType: Fast or slow advertising interval with timings
 748:Generated_Source\PSoC4/BLE.c ****     *                                 entered in Advertising settings section of the
 749:Generated_Source\PSoC4/BLE.c ****     *                                 customizer.
 750:Generated_Source\PSoC4/BLE.c ****     *  * CYBLE_ADVERTISING_FAST   0x00u
 751:Generated_Source\PSoC4/BLE.c ****     *  * CYBLE_ADVERTISING_SLOW   0x01u
 752:Generated_Source\PSoC4/BLE.c ****     *  * CYBLE_ADVERTISING_CUSTOM 0x02u
 753:Generated_Source\PSoC4/BLE.c ****     * 
 754:Generated_Source\PSoC4/BLE.c ****     * \return
 755:Generated_Source\PSoC4/BLE.c ****     *  CYBLE_API_RESULT_T : Return value indicates if the function succeeded or
 756:Generated_Source\PSoC4/BLE.c ****     *  failed. Following are the possible error codes.
 757:Generated_Source\PSoC4/BLE.c ****     * 
 758:Generated_Source\PSoC4/BLE.c ****     *   Errors codes                      |  Description
 759:Generated_Source\PSoC4/BLE.c ****     *   --------------------------------- |  --------------------------------
 760:Generated_Source\PSoC4/BLE.c ****     *   CYBLE_ERROR_OK                    |  On successful operation.
 761:Generated_Source\PSoC4/BLE.c ****     *   CYBLE_ERROR_INVALID_PARAMETER     |  On passing an invalid parameter.
 762:Generated_Source\PSoC4/BLE.c ****     *   CYBLE_ERROR_INVALID_STATE         |  On calling this function not in Disconnected state.
 763:Generated_Source\PSoC4/BLE.c ****     *
 764:Generated_Source\PSoC4/BLE.c ****     * 
 765:Generated_Source\PSoC4/BLE.c ****     *******************************************************************************/
 766:Generated_Source\PSoC4/BLE.c ****     CYBLE_API_RESULT_T CyBle_GappStartAdvertisement(uint8 advertisingIntervalType)
 767:Generated_Source\PSoC4/BLE.c ****     {
 768:Generated_Source\PSoC4/BLE.c ****         CYBLE_API_RESULT_T apiResult;
 769:Generated_Source\PSoC4/BLE.c ****         
 770:Generated_Source\PSoC4/BLE.c ****         if(advertisingIntervalType > CYBLE_ADVERTISING_CUSTOM)
ARM GAS  C:\Users\jupac\AppData\Local\Temp\cctDRBvI.s 			page 19


 771:Generated_Source\PSoC4/BLE.c ****         {
 772:Generated_Source\PSoC4/BLE.c ****             apiResult = CYBLE_ERROR_INVALID_PARAMETER;
 773:Generated_Source\PSoC4/BLE.c ****         }
 774:Generated_Source\PSoC4/BLE.c ****         else if((CYBLE_STATE_DISCONNECTED == CyBle_GetState()) && ((cyBle_eventHandlerFlag & CYBLE_
 775:Generated_Source\PSoC4/BLE.c ****         {   
 776:Generated_Source\PSoC4/BLE.c ****             if(advertisingIntervalType == CYBLE_ADVERTISING_FAST)
 777:Generated_Source\PSoC4/BLE.c ****             {
 778:Generated_Source\PSoC4/BLE.c ****                 cyBle_discoveryModeInfo.advTo = CYBLE_FAST_ADV_TIMEOUT;
 779:Generated_Source\PSoC4/BLE.c ****                 cyBle_discoveryModeInfo.advParam->advIntvMin = CYBLE_FAST_ADV_INT_MIN;
 780:Generated_Source\PSoC4/BLE.c ****                 cyBle_discoveryModeInfo.advParam->advIntvMax = CYBLE_FAST_ADV_INT_MAX;
 781:Generated_Source\PSoC4/BLE.c ****             }
 782:Generated_Source\PSoC4/BLE.c ****             else if(advertisingIntervalType == CYBLE_ADVERTISING_SLOW)
 783:Generated_Source\PSoC4/BLE.c ****             {
 784:Generated_Source\PSoC4/BLE.c ****                 cyBle_discoveryModeInfo.advTo = CYBLE_SLOW_ADV_TIMEOUT;
 785:Generated_Source\PSoC4/BLE.c ****                 cyBle_discoveryModeInfo.advParam->advIntvMin = CYBLE_SLOW_ADV_INT_MIN;
 786:Generated_Source\PSoC4/BLE.c ****                 cyBle_discoveryModeInfo.advParam->advIntvMax = CYBLE_SLOW_ADV_INT_MAX;
 787:Generated_Source\PSoC4/BLE.c ****             }       
 788:Generated_Source\PSoC4/BLE.c ****             else /* Do not update advertising intervals */
 789:Generated_Source\PSoC4/BLE.c ****             {
 790:Generated_Source\PSoC4/BLE.c ****             }
 791:Generated_Source\PSoC4/BLE.c ****             cyBle_advertisingIntervalType = advertisingIntervalType;
 792:Generated_Source\PSoC4/BLE.c ****             apiResult = CyBle_GappEnterDiscoveryMode(&cyBle_discoveryModeInfo);
 793:Generated_Source\PSoC4/BLE.c ****         
 794:Generated_Source\PSoC4/BLE.c ****             if(apiResult == CYBLE_ERROR_OK)
 795:Generated_Source\PSoC4/BLE.c ****             {
 796:Generated_Source\PSoC4/BLE.c ****                 cyBle_eventHandlerFlag |= CYBLE_START_FLAG;
 797:Generated_Source\PSoC4/BLE.c ****             }
 798:Generated_Source\PSoC4/BLE.c ****         }
 799:Generated_Source\PSoC4/BLE.c ****         else
 800:Generated_Source\PSoC4/BLE.c ****         {
 801:Generated_Source\PSoC4/BLE.c ****             apiResult = CYBLE_ERROR_INVALID_STATE;
 802:Generated_Source\PSoC4/BLE.c ****         }
 803:Generated_Source\PSoC4/BLE.c **** 
 804:Generated_Source\PSoC4/BLE.c ****         return (apiResult);
 805:Generated_Source\PSoC4/BLE.c ****     }
 806:Generated_Source\PSoC4/BLE.c **** 
 807:Generated_Source\PSoC4/BLE.c ****     
 808:Generated_Source\PSoC4/BLE.c ****     /******************************************************************************
 809:Generated_Source\PSoC4/BLE.c ****     * Function Name: CyBle_GappStopAdvertisement
 810:Generated_Source\PSoC4/BLE.c ****     ***************************************************************************//**
 811:Generated_Source\PSoC4/BLE.c ****     * 
 812:Generated_Source\PSoC4/BLE.c ****     *   This function can be used to exit from discovery mode. After the execution 
 813:Generated_Source\PSoC4/BLE.c ****     *   of this function, there will no longer be any advertisements. On stopping 
 814:Generated_Source\PSoC4/BLE.c ****     *   advertising, GAP Peripheral receives CYBLE_EVT_GAPP_ADVERTISEMENT_START_STOP
 815:Generated_Source\PSoC4/BLE.c ****     *   event. It is expected that the application layer tracks the function call 
 816:Generated_Source\PSoC4/BLE.c ****     *   performed before occurrence of this event as this event can occur on making 
 817:Generated_Source\PSoC4/BLE.c ****     *   a call to Cy_BleGappStartAdvertisement(), CyBle_GappEnterDiscoveryMode(), 
 818:Generated_Source\PSoC4/BLE.c ****     *   or CyBle_GappStartAdvertisement() functions as well.
 819:Generated_Source\PSoC4/BLE.c ****     *   
 820:Generated_Source\PSoC4/BLE.c ****     *   The following event occurs on invoking this function:
 821:Generated_Source\PSoC4/BLE.c ****     *   * CYBLE_EVT_GAPP_ADVERTISEMENT_START_STOP
 822:Generated_Source\PSoC4/BLE.c ****     * 
 823:Generated_Source\PSoC4/BLE.c ****     *  \return
 824:Generated_Source\PSoC4/BLE.c ****     *   None
 825:Generated_Source\PSoC4/BLE.c ****     * 
 826:Generated_Source\PSoC4/BLE.c ****     *******************************************************************************/
 827:Generated_Source\PSoC4/BLE.c ****     void CyBle_GappStopAdvertisement(void)
ARM GAS  C:\Users\jupac\AppData\Local\Temp\cctDRBvI.s 			page 20


 828:Generated_Source\PSoC4/BLE.c ****     {
 829:Generated_Source\PSoC4/BLE.c ****         CyBle_GappExitDiscoveryMode();
 830:Generated_Source\PSoC4/BLE.c ****         cyBle_eventHandlerFlag |= CYBLE_STOP_FLAG;
 831:Generated_Source\PSoC4/BLE.c ****     }
 832:Generated_Source\PSoC4/BLE.c ****     
 833:Generated_Source\PSoC4/BLE.c ****     
 834:Generated_Source\PSoC4/BLE.c ****     /******************************************************************************
 835:Generated_Source\PSoC4/BLE.c ****     * Function Name: CyBle_ChangeAdDeviceAddress
 836:Generated_Source\PSoC4/BLE.c ****     ***************************************************************************//**
 837:Generated_Source\PSoC4/BLE.c ****     * 
 838:Generated_Source\PSoC4/BLE.c ****     *  This function is used to set the Bluetooth device address into the 
 839:Generated_Source\PSoC4/BLE.c ****     *  advertisement or scan response data structure.
 840:Generated_Source\PSoC4/BLE.c ****     * 
 841:Generated_Source\PSoC4/BLE.c ****     *  \param bdAddr: Bluetooth Device address. The variable is of type CYBLE_GAP_BD_ADDR_T
 842:Generated_Source\PSoC4/BLE.c ****     *  \param dest: 0 - selects advertisement structure, not zero value selects scan 
 843:Generated_Source\PSoC4/BLE.c ****     *               response structure.
 844:Generated_Source\PSoC4/BLE.c ****     * 
 845:Generated_Source\PSoC4/BLE.c ****     * \return
 846:Generated_Source\PSoC4/BLE.c ****     *  None
 847:Generated_Source\PSoC4/BLE.c ****     *  
 848:Generated_Source\PSoC4/BLE.c ****     *******************************************************************************/
 849:Generated_Source\PSoC4/BLE.c ****     void CyBle_ChangeAdDeviceAddress(const CYBLE_GAP_BD_ADDR_T* bdAddr, uint8 dest)
 850:Generated_Source\PSoC4/BLE.c ****     {
 851:Generated_Source\PSoC4/BLE.c ****         uint8 i;
 852:Generated_Source\PSoC4/BLE.c ****         uint8 *destBuffer = NULL;
 853:Generated_Source\PSoC4/BLE.c ****         
 854:Generated_Source\PSoC4/BLE.c ****         if(dest == 0u)      /* Destination - advertising structure */
 855:Generated_Source\PSoC4/BLE.c ****         {
 856:Generated_Source\PSoC4/BLE.c ****             #ifdef CYBLE_ADV_PKT_INDEX_BLUETOOTH_DEVICE_ADDRESS
 857:Generated_Source\PSoC4/BLE.c ****                 destBuffer = &cyBle_discoveryData.advData[CYBLE_ADV_PKT_INDEX_BLUETOOTH_DEVICE_ADDR
 858:Generated_Source\PSoC4/BLE.c ****             #endif /* CYBLE_ADV_PKT_INDEX_BLUETOOTH_DEVICE_ADDRESS */
 859:Generated_Source\PSoC4/BLE.c ****         }
 860:Generated_Source\PSoC4/BLE.c ****         else                /* Destination - scan response structure */
 861:Generated_Source\PSoC4/BLE.c ****         {
 862:Generated_Source\PSoC4/BLE.c ****             #ifdef CYBLE_SCN_PKT_INDEX_BLUETOOTH_DEVICE_ADDRESS
 863:Generated_Source\PSoC4/BLE.c ****                 destBuffer = &cyBle_scanRspData.scanRspData[CYBLE_SCN_PKT_INDEX_BLUETOOTH_DEVICE_AD
 864:Generated_Source\PSoC4/BLE.c ****             #endif /* CYBLE_SCN_PKT_INDEX_BLUETOOTH_DEVICE_ADDRESS */    
 865:Generated_Source\PSoC4/BLE.c ****         }
 866:Generated_Source\PSoC4/BLE.c ****         
 867:Generated_Source\PSoC4/BLE.c ****         if(destBuffer != NULL)
 868:Generated_Source\PSoC4/BLE.c ****         {
 869:Generated_Source\PSoC4/BLE.c ****             /* Update Device Address type */
 870:Generated_Source\PSoC4/BLE.c ****             destBuffer[0u] = bdAddr->type;
 871:Generated_Source\PSoC4/BLE.c ****             
 872:Generated_Source\PSoC4/BLE.c ****             for(i = 0u; i < CYBLE_GAP_BD_ADDR_SIZE; i++)
 873:Generated_Source\PSoC4/BLE.c ****             {
 874:Generated_Source\PSoC4/BLE.c ****                 destBuffer[i + 1u] = bdAddr->bdAddr[i];
 875:Generated_Source\PSoC4/BLE.c ****             }
 876:Generated_Source\PSoC4/BLE.c ****         }
 877:Generated_Source\PSoC4/BLE.c ****     }
 878:Generated_Source\PSoC4/BLE.c ****   
 879:Generated_Source\PSoC4/BLE.c **** #endif /* CYBLE_GAP_ROLE_PERIPHERAL || CYBLE_GAP_ROLE_BROADCASTER */
 880:Generated_Source\PSoC4/BLE.c **** 
 881:Generated_Source\PSoC4/BLE.c **** 
 882:Generated_Source\PSoC4/BLE.c **** #if(CYBLE_GAP_ROLE_CENTRAL || CYBLE_GAP_ROLE_OBSERVER)
 883:Generated_Source\PSoC4/BLE.c **** 
 884:Generated_Source\PSoC4/BLE.c ****     /******************************************************************************
ARM GAS  C:\Users\jupac\AppData\Local\Temp\cctDRBvI.s 			page 21


 885:Generated_Source\PSoC4/BLE.c ****     * Function Name: CyBle_GapcStartScan
 886:Generated_Source\PSoC4/BLE.c ****     ***************************************************************************//**
 887:Generated_Source\PSoC4/BLE.c ****     * 
 888:Generated_Source\PSoC4/BLE.c ****     *   This function is used for discovering GAP peripheral devices that are 
 889:Generated_Source\PSoC4/BLE.c ****     *   available for connection. It performs the scanning routine using the 
 890:Generated_Source\PSoC4/BLE.c ****     *   parameters entered in the component's customizer.
 891:Generated_Source\PSoC4/BLE.c ****     *   
 892:Generated_Source\PSoC4/BLE.c ****     *   As soon as the discovery operation starts, CYBLE_EVT_GAPC_SCAN_START_STOP 
 893:Generated_Source\PSoC4/BLE.c ****     *   event is generated. The CYBLE_EVT_GAPC_SCAN_PROGRESS_RESULT event is 
 894:Generated_Source\PSoC4/BLE.c ****     *   generated when a GAP peripheral device is located. There are three discovery
 895:Generated_Source\PSoC4/BLE.c ****     *   procedures can be selected in the customizer's GUI:
 896:Generated_Source\PSoC4/BLE.c ****     *   
 897:Generated_Source\PSoC4/BLE.c ****     *   * Observation procedure: A device performing the observer role receives only
 898:Generated_Source\PSoC4/BLE.c ****     *                            advertisement data from devices irrespective of 
 899:Generated_Source\PSoC4/BLE.c ****     *                            their discoverable mode settings. Advertisement 
 900:Generated_Source\PSoC4/BLE.c ****     *                            data received is provided by the event,      
 901:Generated_Source\PSoC4/BLE.c ****     *                            CYBLE_EVT_GAPC_SCAN_PROGRESS_RESULT. This procedure
 902:Generated_Source\PSoC4/BLE.c ****     *                            requires the scanType sub parameter to be passive
 903:Generated_Source\PSoC4/BLE.c ****     *                            scanning. 
 904:Generated_Source\PSoC4/BLE.c ****     *   
 905:Generated_Source\PSoC4/BLE.c ****     *   * Limited Discovery procedure: A device performing the limited discovery
 906:Generated_Source\PSoC4/BLE.c ****     *                                  procedure receives advertisement data and 
 907:Generated_Source\PSoC4/BLE.c ****     *                                  scan# response data from devices in the 
 908:Generated_Source\PSoC4/BLE.c ****     *                                  limited discoverable mode only. Received data
 909:Generated_Source\PSoC4/BLE.c ****     *                                  is provided by the event, 
 910:Generated_Source\PSoC4/BLE.c ****     *                                  CYBLE_EVT_GAPC_SCAN_PROGRESS_RESULT. This 
 911:Generated_Source\PSoC4/BLE.c ****     *                                  procedure requires the scanType sub-parameter 
 912:Generated_Source\PSoC4/BLE.c ****     *                                  to be active scanning.
 913:Generated_Source\PSoC4/BLE.c ****     *   
 914:Generated_Source\PSoC4/BLE.c ****     *   * General Discovery procedure: A device performing the general discovery 
 915:Generated_Source\PSoC4/BLE.c ****     *                                  procedure receives the advertisement data and
 916:Generated_Source\PSoC4/BLE.c ****     *                                  scan response data from devices in both 
 917:Generated_Source\PSoC4/BLE.c ****     *                                  limited discoverable mode and the general 
 918:Generated_Source\PSoC4/BLE.c ****     *                                  discoverable mode. Received data is provided
 919:Generated_Source\PSoC4/BLE.c ****     *                                  by the event,
 920:Generated_Source\PSoC4/BLE.c ****     *                                  CYBLE_EVT_GAPC_SCAN_PROGRESS_RESULT. This 
 921:Generated_Source\PSoC4/BLE.c ****     *                                  procedure requires the scanType sub-parameter
 922:Generated_Source\PSoC4/BLE.c ****     *                                  to be active scanning.
 923:Generated_Source\PSoC4/BLE.c ****     *   
 924:Generated_Source\PSoC4/BLE.c ****     *   Every Advertisement / Scan response packet received results in a new event, 
 925:Generated_Source\PSoC4/BLE.c ****     *   CYBLE_EVT_GAPC_SCAN_PROGRESS_RESULT.
 926:Generated_Source\PSoC4/BLE.c ****     *   If 'scanTo' sub-parameter is a non-zero value, then upon commencement of 
 927:Generated_Source\PSoC4/BLE.c ****     *   discovery procedure and elapsed time = 'scanTo', CYBLE_EVT_TIMEOUT event
 928:Generated_Source\PSoC4/BLE.c ****     *   is generated with the event parameter indicating CYBLE_GAP_SCAN_TO.
 929:Generated_Source\PSoC4/BLE.c ****     *   Possible generated events are:
 930:Generated_Source\PSoC4/BLE.c ****     *   * CYBLE_EVT_GAPC_SCAN_START_STOP: If a device started or stopped scanning. 
 931:Generated_Source\PSoC4/BLE.c ****     *                                     Use CyBle_GetState() to determine the 
 932:Generated_Source\PSoC4/BLE.c ****     *                                     state. Sequential scanning could be 
 933:Generated_Source\PSoC4/BLE.c ****     *                                     started when CYBLE_STATE_DISCONNECTED 
 934:Generated_Source\PSoC4/BLE.c ****     *                                     state is returned. 
 935:Generated_Source\PSoC4/BLE.c ****     *   * CYBLE_EVT_GAPC_SCAN_PROGRESS_RESULT 
 936:Generated_Source\PSoC4/BLE.c ****     *   * CYBLE_EVT_TIMEOUT (CYBLE_GAP_SCAN_TO)
 937:Generated_Source\PSoC4/BLE.c ****     * 
 938:Generated_Source\PSoC4/BLE.c ****     *   \param scanningIntervalType:  Fast or slow scanning interval with
 939:Generated_Source\PSoC4/BLE.c ****     *       timings entered in Scan settings section of the customizer.
 940:Generated_Source\PSoC4/BLE.c ****     * 	  * CYBLE_SCANNING_FAST   0x00u
 941:Generated_Source\PSoC4/BLE.c ****     * 	  * CYBLE_SCANNING_SLOW   0x01u
ARM GAS  C:\Users\jupac\AppData\Local\Temp\cctDRBvI.s 			page 22


 942:Generated_Source\PSoC4/BLE.c ****     * 	  * CYBLE_SCANNING_CUSTOM 0x02u
 943:Generated_Source\PSoC4/BLE.c ****     * 
 944:Generated_Source\PSoC4/BLE.c ****     * \return
 945:Generated_Source\PSoC4/BLE.c ****     *  CYBLE_API_RESULT_T : Return value indicates if the function succeeded or
 946:Generated_Source\PSoC4/BLE.c ****     *  failed. Following are the possible error codes.
 947:Generated_Source\PSoC4/BLE.c ****     *
 948:Generated_Source\PSoC4/BLE.c ****     *   Errors codes                       | Description
 949:Generated_Source\PSoC4/BLE.c ****     *   ---------------------------------- | -----------------------------------
 950:Generated_Source\PSoC4/BLE.c ****     *   CYBLE_ERROR_OK                     | On successful operation.
 951:Generated_Source\PSoC4/BLE.c ****     *   CYBLE_ERROR_STACK_INTERNAL         | An error occurred in the BLE stack.
 952:Generated_Source\PSoC4/BLE.c ****     *   CYBLE_ERROR_INVALID_PARAMETER      | On passing an invalid parameter.
 953:Generated_Source\PSoC4/BLE.c ****     *  
 954:Generated_Source\PSoC4/BLE.c ****     *******************************************************************************/
 955:Generated_Source\PSoC4/BLE.c ****     CYBLE_API_RESULT_T CyBle_GapcStartScan(uint8 scanningIntervalType)
 956:Generated_Source\PSoC4/BLE.c ****     {
 257              		.loc 1 956 0
 258              		.cfi_startproc
 259              		@ args = 0, pretend = 0, frame = 0
 260              		@ frame_needed = 0, uses_anonymous_args = 0
 261              	.LVL16:
 262 0000 10B5     		push	{r4, lr}
 263              		.cfi_def_cfa_offset 8
 264              		.cfi_offset 4, -8
 265              		.cfi_offset 14, -4
 957:Generated_Source\PSoC4/BLE.c ****         CYBLE_API_RESULT_T apiResult;
 958:Generated_Source\PSoC4/BLE.c **** 
 959:Generated_Source\PSoC4/BLE.c ****         if(scanningIntervalType > CYBLE_SCANNING_CUSTOM)
 266              		.loc 1 959 0
 267 0002 0228     		cmp	r0, #2
 268 0004 21D8     		bhi	.L18
 960:Generated_Source\PSoC4/BLE.c ****         {
 961:Generated_Source\PSoC4/BLE.c ****             apiResult = CYBLE_ERROR_INVALID_PARAMETER;
 962:Generated_Source\PSoC4/BLE.c ****         }
 963:Generated_Source\PSoC4/BLE.c ****         else
 964:Generated_Source\PSoC4/BLE.c ****         {
 965:Generated_Source\PSoC4/BLE.c ****             if(scanningIntervalType == CYBLE_SCANNING_FAST)
 269              		.loc 1 965 0
 270 0006 0028     		cmp	r0, #0
 271 0008 07D1     		bne	.L16
 966:Generated_Source\PSoC4/BLE.c ****             {
 967:Generated_Source\PSoC4/BLE.c ****                 cyBle_discoveryInfo.scanTo = CYBLE_FAST_SCAN_TIMEOUT;
 272              		.loc 1 967 0
 273 000a 114B     		ldr	r3, .L19
 274 000c 0022     		movs	r2, #0
 275 000e 1A81     		strh	r2, [r3, #8]
 968:Generated_Source\PSoC4/BLE.c ****                 cyBle_discoveryInfo.scanIntv = CYBLE_FAST_SCAN_INTERVAL;
 276              		.loc 1 968 0
 277 0010 C822     		movs	r2, #200
 278 0012 9200     		lsls	r2, r2, #2
 279 0014 5A80     		strh	r2, [r3, #2]
 969:Generated_Source\PSoC4/BLE.c ****                 cyBle_discoveryInfo.scanWindow = CYBLE_FAST_SCAN_WINDOW;
 280              		.loc 1 969 0
 281 0016 9A80     		strh	r2, [r3, #4]
 282 0018 09E0     		b	.L17
 283              	.L16:
 970:Generated_Source\PSoC4/BLE.c ****             }
 971:Generated_Source\PSoC4/BLE.c ****             else if(scanningIntervalType == CYBLE_SCANNING_SLOW)
ARM GAS  C:\Users\jupac\AppData\Local\Temp\cctDRBvI.s 			page 23


 284              		.loc 1 971 0
 285 001a 0128     		cmp	r0, #1
 286 001c 07D1     		bne	.L17
 972:Generated_Source\PSoC4/BLE.c ****             {
 973:Generated_Source\PSoC4/BLE.c ****                 cyBle_discoveryInfo.scanTo = CYBLE_SLOW_SCAN_TIMEOUT;
 287              		.loc 1 973 0
 288 001e 0C4B     		ldr	r3, .L19
 289 0020 9622     		movs	r2, #150
 290 0022 1A81     		strh	r2, [r3, #8]
 974:Generated_Source\PSoC4/BLE.c ****                 cyBle_discoveryInfo.scanIntv = CYBLE_SLOW_SCAN_INTERVAL;
 291              		.loc 1 974 0
 292 0024 8022     		movs	r2, #128
 293 0026 1201     		lsls	r2, r2, #4
 294 0028 5A80     		strh	r2, [r3, #2]
 975:Generated_Source\PSoC4/BLE.c ****                 cyBle_discoveryInfo.scanWindow = CYBLE_SLOW_SCAN_WINDOW;
 295              		.loc 1 975 0
 296 002a F83A     		subs	r2, r2, #248
 297 002c 9A80     		strh	r2, [r3, #4]
 298              	.L17:
 976:Generated_Source\PSoC4/BLE.c ****             }       
 977:Generated_Source\PSoC4/BLE.c ****             else /* Do not update scanning intervals */
 978:Generated_Source\PSoC4/BLE.c ****             {
 979:Generated_Source\PSoC4/BLE.c ****             }
 980:Generated_Source\PSoC4/BLE.c ****             
 981:Generated_Source\PSoC4/BLE.c ****             cyBle_scanningIntervalType = scanningIntervalType;
 299              		.loc 1 981 0
 300 002e 094B     		ldr	r3, .L19+4
 301 0030 1870     		strb	r0, [r3]
 982:Generated_Source\PSoC4/BLE.c ****             apiResult = CyBle_GapcStartDiscovery(&cyBle_discoveryInfo);
 302              		.loc 1 982 0
 303 0032 0748     		ldr	r0, .L19
 304              	.LVL17:
 305 0034 FFF7FEFF 		bl	CyBle_GapcStartDiscovery
 306              	.LVL18:
 983:Generated_Source\PSoC4/BLE.c ****         
 984:Generated_Source\PSoC4/BLE.c ****             if(apiResult == CYBLE_ERROR_OK)
 307              		.loc 1 984 0
 308 0038 0028     		cmp	r0, #0
 309 003a 07D1     		bne	.L15
 985:Generated_Source\PSoC4/BLE.c ****             {
 986:Generated_Source\PSoC4/BLE.c ****                 cyBle_eventHandlerFlag |= CYBLE_START_FLAG;
 310              		.loc 1 986 0
 311 003c 064A     		ldr	r2, .L19+8
 312 003e 1178     		ldrb	r1, [r2]
 313 0040 0423     		movs	r3, #4
 314 0042 0B43     		orrs	r3, r1
 315 0044 DBB2     		uxtb	r3, r3
 316 0046 1370     		strb	r3, [r2]
 317 0048 00E0     		b	.L15
 318              	.LVL19:
 319              	.L18:
 961:Generated_Source\PSoC4/BLE.c ****         }
 320              		.loc 1 961 0
 321 004a 0120     		movs	r0, #1
 322              	.LVL20:
 323              	.L15:
 987:Generated_Source\PSoC4/BLE.c ****             }
ARM GAS  C:\Users\jupac\AppData\Local\Temp\cctDRBvI.s 			page 24


 988:Generated_Source\PSoC4/BLE.c ****         }
 989:Generated_Source\PSoC4/BLE.c ****        
 990:Generated_Source\PSoC4/BLE.c ****         return (apiResult);
 991:Generated_Source\PSoC4/BLE.c ****     }
 324              		.loc 1 991 0
 325              		@ sp needed
 326 004c 10BD     		pop	{r4, pc}
 327              	.L20:
 328 004e C046     		.align	2
 329              	.L19:
 330 0050 00000000 		.word	.LANCHOR3
 331 0054 00000000 		.word	cyBle_scanningIntervalType
 332 0058 00000000 		.word	cyBle_eventHandlerFlag
 333              		.cfi_endproc
 334              	.LFE6:
 335              		.size	CyBle_GapcStartScan, .-CyBle_GapcStartScan
 336              		.section	.text.CyBle_GapcStopScan,"ax",%progbits
 337              		.align	2
 338              		.global	CyBle_GapcStopScan
 339              		.code	16
 340              		.thumb_func
 341              		.type	CyBle_GapcStopScan, %function
 342              	CyBle_GapcStopScan:
 343              	.LFB7:
 992:Generated_Source\PSoC4/BLE.c ****     
 993:Generated_Source\PSoC4/BLE.c ****     
 994:Generated_Source\PSoC4/BLE.c ****     /******************************************************************************
 995:Generated_Source\PSoC4/BLE.c ****     * Function Name: CyBle_GapcStopScan
 996:Generated_Source\PSoC4/BLE.c ****     ***************************************************************************//**
 997:Generated_Source\PSoC4/BLE.c ****     * 
 998:Generated_Source\PSoC4/BLE.c ****     *   This function used to stop the discovery of devices. On stopping discovery
 999:Generated_Source\PSoC4/BLE.c ****     *   operation, CYBLE_EVT_GAPC_SCAN_START_STOP event is generated. Application
1000:Generated_Source\PSoC4/BLE.c ****     *   layer needs to keep track of the function call made before receiving this
1001:Generated_Source\PSoC4/BLE.c ****     *   event to associate this event with either the start or stop discovery
1002:Generated_Source\PSoC4/BLE.c ****     *   function.
1003:Generated_Source\PSoC4/BLE.c ****     * 
1004:Generated_Source\PSoC4/BLE.c ****     *   Possible events generated are:
1005:Generated_Source\PSoC4/BLE.c ****     *    * CYBLE_EVT_GAPC_SCAN_START_STOP
1006:Generated_Source\PSoC4/BLE.c ****     * 
1007:Generated_Source\PSoC4/BLE.c ****     *  \return
1008:Generated_Source\PSoC4/BLE.c ****     *   None
1009:Generated_Source\PSoC4/BLE.c ****     * 
1010:Generated_Source\PSoC4/BLE.c ****     *******************************************************************************/
1011:Generated_Source\PSoC4/BLE.c ****     void CyBle_GapcStopScan(void)
1012:Generated_Source\PSoC4/BLE.c ****     {
 344              		.loc 1 1012 0
 345              		.cfi_startproc
 346              		@ args = 0, pretend = 0, frame = 0
 347              		@ frame_needed = 0, uses_anonymous_args = 0
 348 0000 10B5     		push	{r4, lr}
 349              		.cfi_def_cfa_offset 8
 350              		.cfi_offset 4, -8
 351              		.cfi_offset 14, -4
1013:Generated_Source\PSoC4/BLE.c ****         CyBle_GapcStopDiscovery();
 352              		.loc 1 1013 0
 353 0002 FFF7FEFF 		bl	CyBle_GapcStopDiscovery
 354              	.LVL21:
ARM GAS  C:\Users\jupac\AppData\Local\Temp\cctDRBvI.s 			page 25


1014:Generated_Source\PSoC4/BLE.c ****         
1015:Generated_Source\PSoC4/BLE.c ****         cyBle_eventHandlerFlag |= CYBLE_STOP_FLAG;
 355              		.loc 1 1015 0
 356 0006 034A     		ldr	r2, .L22
 357 0008 1178     		ldrb	r1, [r2]
 358 000a 0823     		movs	r3, #8
 359 000c 0B43     		orrs	r3, r1
 360 000e DBB2     		uxtb	r3, r3
 361 0010 1370     		strb	r3, [r2]
1016:Generated_Source\PSoC4/BLE.c ****     }
 362              		.loc 1 1016 0
 363              		@ sp needed
 364 0012 10BD     		pop	{r4, pc}
 365              	.L23:
 366              		.align	2
 367              	.L22:
 368 0014 00000000 		.word	cyBle_eventHandlerFlag
 369              		.cfi_endproc
 370              	.LFE7:
 371              		.size	CyBle_GapcStopScan, .-CyBle_GapcStopScan
 372              		.section	.text.CyBle_GapSetLocalName,"ax",%progbits
 373              		.align	2
 374              		.global	CyBle_GapSetLocalName
 375              		.code	16
 376              		.thumb_func
 377              		.type	CyBle_GapSetLocalName, %function
 378              	CyBle_GapSetLocalName:
 379              	.LFB8:
1017:Generated_Source\PSoC4/BLE.c **** 
1018:Generated_Source\PSoC4/BLE.c ****     
1019:Generated_Source\PSoC4/BLE.c **** #endif /* CYBLE_GAP_ROLE_CENTRAL || CYBLE_GAP_ROLE_OBSERVER */
1020:Generated_Source\PSoC4/BLE.c **** 
1021:Generated_Source\PSoC4/BLE.c **** 
1022:Generated_Source\PSoC4/BLE.c **** #if(CYBLE_GAP_ROLE_CENTRAL)
1023:Generated_Source\PSoC4/BLE.c **** 
1024:Generated_Source\PSoC4/BLE.c ****     /******************************************************************************
1025:Generated_Source\PSoC4/BLE.c ****     * Function Name: CyBle_GapcConnectDevice
1026:Generated_Source\PSoC4/BLE.c ****     ***************************************************************************//**
1027:Generated_Source\PSoC4/BLE.c ****     * 
1028:Generated_Source\PSoC4/BLE.c ****     *  This function is used to send a connection request to the remote device with
1029:Generated_Source\PSoC4/BLE.c ****     *  the connection parameters set in the component customizer. This function needs
1030:Generated_Source\PSoC4/BLE.c ****     *  to be called only once after the target device is discovered by 
1031:Generated_Source\PSoC4/BLE.c ****     *  CyBle_GapcStartScan() and further scanning has stopped. Scanning is 
1032:Generated_Source\PSoC4/BLE.c ****     *  successfully stopped on invoking CyBle_GapcStopScan() and then receiving the
1033:Generated_Source\PSoC4/BLE.c ****     *  event CYBLE_EVT_GAPC_SCAN_START_STOP with sub-parameter 'success' = 0x01u.
1034:Generated_Source\PSoC4/BLE.c ****     *  
1035:Generated_Source\PSoC4/BLE.c ****     *  On successful connection, the following events are generated at the GAP 
1036:Generated_Source\PSoC4/BLE.c ****     *  Central device (as well as the GAP Peripheral device), in the following order.
1037:Generated_Source\PSoC4/BLE.c ****     *  * CYBLE_EVT_GATT_CONNECT_IND
1038:Generated_Source\PSoC4/BLE.c ****     *  * CYBLE_EVT_GAP_DEVICE_CONNECTED - If the device connects to a GAP Central and 
1039:Generated_Source\PSoC4/BLE.c ****     *    Link Layer Privacy is disabled in component customizer.
1040:Generated_Source\PSoC4/BLE.c ****     *  * CYBLE_EVT_GAP_ENHANCE_CONN_COMPLETE - If the device connects to a GAP Central and 
1041:Generated_Source\PSoC4/BLE.c ****     *    Link Layer Privacy is enabled in component customizer.
1042:Generated_Source\PSoC4/BLE.c ****     *  * CYBLE_EVT_GAP_DEVICE_CONNECTED
1043:Generated_Source\PSoC4/BLE.c ****     *  
1044:Generated_Source\PSoC4/BLE.c ****     *  A procedure is considered to have timed out if a connection response packet is 
1045:Generated_Source\PSoC4/BLE.c ****     *  not received within time set by cyBle_connectingTimeout global variable
ARM GAS  C:\Users\jupac\AppData\Local\Temp\cctDRBvI.s 			page 26


1046:Generated_Source\PSoC4/BLE.c ****     *  (30 seconds by default). CYBLE_EVT_TIMEOUT event with CYBLE_GENERIC_TO parameter
1047:Generated_Source\PSoC4/BLE.c ****     *  will indicate about connection procedure timeout. Connection will automatically
1048:Generated_Source\PSoC4/BLE.c ****     *  be canceled and state will be changed to CYBLE_STATE_DISCONNECTED.
1049:Generated_Source\PSoC4/BLE.c ****     * 
1050:Generated_Source\PSoC4/BLE.c ****     *  \param address: The device address of the remote device to connect to. 
1051:Generated_Source\PSoC4/BLE.c ****     *  
1052:Generated_Source\PSoC4/BLE.c ****     * \return
1053:Generated_Source\PSoC4/BLE.c ****     *  CYBLE_API_RESULT_T : Return value indicates if the function succeeded or 
1054:Generated_Source\PSoC4/BLE.c ****     *  failed. Following are the possible error codes.
1055:Generated_Source\PSoC4/BLE.c ****     *
1056:Generated_Source\PSoC4/BLE.c ****     *   Errors codes                       | Description
1057:Generated_Source\PSoC4/BLE.c ****     *   ------------                       | -----------
1058:Generated_Source\PSoC4/BLE.c ****     *   CYBLE_ERROR_OK                     | On successful operation.
1059:Generated_Source\PSoC4/BLE.c ****     *   CYBLE_ERROR_STACK_INTERNAL         | On error occurred in the BLE stack.
1060:Generated_Source\PSoC4/BLE.c ****     *   CYBLE_ERROR_INVALID_PARAMETER      | On passing an invalid parameter.
1061:Generated_Source\PSoC4/BLE.c ****     *   CYBLE_ERROR_INVALID_STATE          | On calling this function not in Disconnected state.
1062:Generated_Source\PSoC4/BLE.c ****     *  
1063:Generated_Source\PSoC4/BLE.c ****     ******************************************************************************/
1064:Generated_Source\PSoC4/BLE.c ****     CYBLE_API_RESULT_T CyBle_GapcConnectDevice(const CYBLE_GAP_BD_ADDR_T * address)
1065:Generated_Source\PSoC4/BLE.c ****     {
1066:Generated_Source\PSoC4/BLE.c ****         CYBLE_API_RESULT_T apiResult;
1067:Generated_Source\PSoC4/BLE.c ****         uint8 i;
1068:Generated_Source\PSoC4/BLE.c **** 
1069:Generated_Source\PSoC4/BLE.c ****         if(CyBle_GetState() != CYBLE_STATE_DISCONNECTED)
1070:Generated_Source\PSoC4/BLE.c ****         {
1071:Generated_Source\PSoC4/BLE.c ****             apiResult = CYBLE_ERROR_INVALID_STATE;
1072:Generated_Source\PSoC4/BLE.c ****         }
1073:Generated_Source\PSoC4/BLE.c ****         else if(address == NULL)
1074:Generated_Source\PSoC4/BLE.c ****         {
1075:Generated_Source\PSoC4/BLE.c ****             apiResult = CYBLE_ERROR_INVALID_PARAMETER;
1076:Generated_Source\PSoC4/BLE.c ****         }
1077:Generated_Source\PSoC4/BLE.c ****         else
1078:Generated_Source\PSoC4/BLE.c ****         {
1079:Generated_Source\PSoC4/BLE.c ****             for(i = 0u; i < CYBLE_GAP_BD_ADDR_SIZE; i++)
1080:Generated_Source\PSoC4/BLE.c ****             {
1081:Generated_Source\PSoC4/BLE.c ****                 cyBle_connectionParameters.peerBdAddr[i] = address->bdAddr[i];
1082:Generated_Source\PSoC4/BLE.c ****             }
1083:Generated_Source\PSoC4/BLE.c ****             cyBle_connectionParameters.peerAddrType = address -> type;
1084:Generated_Source\PSoC4/BLE.c ****             apiResult = CyBle_GapcInitConnection(&cyBle_connectionParameters);
1085:Generated_Source\PSoC4/BLE.c ****             
1086:Generated_Source\PSoC4/BLE.c ****             if(apiResult == CYBLE_ERROR_OK)
1087:Generated_Source\PSoC4/BLE.c ****             {
1088:Generated_Source\PSoC4/BLE.c ****                 CyBle_SetState(CYBLE_STATE_CONNECTING);
1089:Generated_Source\PSoC4/BLE.c ****                 if(cyBle_connectingTimeout != 0u)
1090:Generated_Source\PSoC4/BLE.c ****                 {
1091:Generated_Source\PSoC4/BLE.c ****                     (void)CyBle_StartTimer(cyBle_connectingTimeout);
1092:Generated_Source\PSoC4/BLE.c ****                 }
1093:Generated_Source\PSoC4/BLE.c ****             }
1094:Generated_Source\PSoC4/BLE.c ****         }
1095:Generated_Source\PSoC4/BLE.c ****         return (apiResult);
1096:Generated_Source\PSoC4/BLE.c ****     }
1097:Generated_Source\PSoC4/BLE.c ****     
1098:Generated_Source\PSoC4/BLE.c **** 
1099:Generated_Source\PSoC4/BLE.c ****     /******************************************************************************
1100:Generated_Source\PSoC4/BLE.c ****     * Function Name: CyBle_GapcCancelDeviceConnection
1101:Generated_Source\PSoC4/BLE.c ****     ***************************************************************************//**
1102:Generated_Source\PSoC4/BLE.c ****     * 
ARM GAS  C:\Users\jupac\AppData\Local\Temp\cctDRBvI.s 			page 27


1103:Generated_Source\PSoC4/BLE.c ****     *  This function cancels a previously initiated connection with the remote 
1104:Generated_Source\PSoC4/BLE.c ****     *  device. It is a blocking function. No event is generated on calling this 
1105:Generated_Source\PSoC4/BLE.c ****     *  function. If the devices are already connected then this function should not
1106:Generated_Source\PSoC4/BLE.c ****     *  be used. If you intend to disconnect from an existing connection, the function
1107:Generated_Source\PSoC4/BLE.c ****     *  CyBle_GapDisconnect() should be used.
1108:Generated_Source\PSoC4/BLE.c ****     * 
1109:Generated_Source\PSoC4/BLE.c ****     * \return
1110:Generated_Source\PSoC4/BLE.c ****     *  CYBLE_API_RESULT_T : Return value indicates if the function succeeded or 
1111:Generated_Source\PSoC4/BLE.c ****     *  failed. Following are the possible error codes.
1112:Generated_Source\PSoC4/BLE.c ****     *
1113:Generated_Source\PSoC4/BLE.c ****     *   Errors codes                       | Description
1114:Generated_Source\PSoC4/BLE.c ****     *   ---------------------------------- | --------------------------------------
1115:Generated_Source\PSoC4/BLE.c ****     *   CYBLE_ERROR_OK                     | On successful operation.
1116:Generated_Source\PSoC4/BLE.c ****     *   CYBLE_ERROR_STACK_INTERNAL         | An error occurred in the BLE stack.
1117:Generated_Source\PSoC4/BLE.c ****     *   CYBLE_ERROR_INVALID_STATE          | On calling this function not in Connecting state.
1118:Generated_Source\PSoC4/BLE.c ****     *  
1119:Generated_Source\PSoC4/BLE.c ****     *******************************************************************************/
1120:Generated_Source\PSoC4/BLE.c ****     CYBLE_API_RESULT_T CyBle_GapcCancelDeviceConnection(void)
1121:Generated_Source\PSoC4/BLE.c ****     {
1122:Generated_Source\PSoC4/BLE.c ****         CYBLE_API_RESULT_T apiResult;
1123:Generated_Source\PSoC4/BLE.c ****         
1124:Generated_Source\PSoC4/BLE.c ****         if(CyBle_GetState() != CYBLE_STATE_CONNECTING)
1125:Generated_Source\PSoC4/BLE.c ****         {
1126:Generated_Source\PSoC4/BLE.c ****             apiResult = CYBLE_ERROR_INVALID_STATE;
1127:Generated_Source\PSoC4/BLE.c ****         }
1128:Generated_Source\PSoC4/BLE.c ****         else 
1129:Generated_Source\PSoC4/BLE.c ****         {
1130:Generated_Source\PSoC4/BLE.c ****             apiResult = CyBle_GapcCancelConnection();
1131:Generated_Source\PSoC4/BLE.c ****             
1132:Generated_Source\PSoC4/BLE.c ****             if(cyBle_connectingTimeout != 0u)
1133:Generated_Source\PSoC4/BLE.c ****             {
1134:Generated_Source\PSoC4/BLE.c ****                 (void)CyBle_StopTimer();
1135:Generated_Source\PSoC4/BLE.c ****             }
1136:Generated_Source\PSoC4/BLE.c **** 
1137:Generated_Source\PSoC4/BLE.c ****             if(apiResult == CYBLE_ERROR_OK)
1138:Generated_Source\PSoC4/BLE.c ****             {
1139:Generated_Source\PSoC4/BLE.c ****                 CyBle_SetState(CYBLE_STATE_DISCONNECTED);
1140:Generated_Source\PSoC4/BLE.c ****             }
1141:Generated_Source\PSoC4/BLE.c ****         }
1142:Generated_Source\PSoC4/BLE.c ****         return (apiResult);
1143:Generated_Source\PSoC4/BLE.c ****     }    
1144:Generated_Source\PSoC4/BLE.c **** 
1145:Generated_Source\PSoC4/BLE.c ****     
1146:Generated_Source\PSoC4/BLE.c **** #endif /* CYBLE_GAP_ROLE_CENTRAL */
1147:Generated_Source\PSoC4/BLE.c **** 
1148:Generated_Source\PSoC4/BLE.c **** 
1149:Generated_Source\PSoC4/BLE.c **** #if(CYBLE_GATT_ROLE_SERVER)
1150:Generated_Source\PSoC4/BLE.c **** 
1151:Generated_Source\PSoC4/BLE.c **** #if(CYBLE_GAP_ROLE_PERIPHERAL)
1152:Generated_Source\PSoC4/BLE.c **** 
1153:Generated_Source\PSoC4/BLE.c ****         /******************************************************************************
1154:Generated_Source\PSoC4/BLE.c ****         * Function Name: CyBle_ChangeAdLocalName
1155:Generated_Source\PSoC4/BLE.c ****         ***************************************************************************//**
1156:Generated_Source\PSoC4/BLE.c ****         *  This function is used to set the local device name in the advertisement or 
1157:Generated_Source\PSoC4/BLE.c ****         *  scan response data structure.
1158:Generated_Source\PSoC4/BLE.c ****         * 
1159:Generated_Source\PSoC4/BLE.c ****         *  \param name: The local device name string to be set in advertisement data 
ARM GAS  C:\Users\jupac\AppData\Local\Temp\cctDRBvI.s 			page 28


1160:Generated_Source\PSoC4/BLE.c ****         *            structure.
1161:Generated_Source\PSoC4/BLE.c ****         *  \param dest: 0 - advertisement structure, not zero value selects scan response
1162:Generated_Source\PSoC4/BLE.c ****         *              structure.
1163:Generated_Source\PSoC4/BLE.c ****         * 
1164:Generated_Source\PSoC4/BLE.c ****         * \return
1165:Generated_Source\PSoC4/BLE.c ****         *  None
1166:Generated_Source\PSoC4/BLE.c ****         *  
1167:Generated_Source\PSoC4/BLE.c ****         *******************************************************************************/
1168:Generated_Source\PSoC4/BLE.c ****         static void CyBle_ChangeAdLocalName(const char8 name[], uint8 dest)
1169:Generated_Source\PSoC4/BLE.c ****         {
1170:Generated_Source\PSoC4/BLE.c ****             uint8 i;
1171:Generated_Source\PSoC4/BLE.c ****             uint8 flag = 0u;
1172:Generated_Source\PSoC4/BLE.c ****             uint8 adLength = 0u;
1173:Generated_Source\PSoC4/BLE.c ****             uint8 byteCounter = 0u;
1174:Generated_Source\PSoC4/BLE.c ****             uint8 *destBuffer;
1175:Generated_Source\PSoC4/BLE.c ****             uint8 maxLength;
1176:Generated_Source\PSoC4/BLE.c ****             
1177:Generated_Source\PSoC4/BLE.c ****             if(dest == 0u)      /* Destination - advertising structure */
1178:Generated_Source\PSoC4/BLE.c ****             {
1179:Generated_Source\PSoC4/BLE.c ****                 destBuffer = cyBle_discoveryData.advData;
1180:Generated_Source\PSoC4/BLE.c ****                 maxLength = cyBle_discoveryData.advDataLen;
1181:Generated_Source\PSoC4/BLE.c ****             }
1182:Generated_Source\PSoC4/BLE.c ****             else                /* Destination - scan response structure */
1183:Generated_Source\PSoC4/BLE.c ****             {
1184:Generated_Source\PSoC4/BLE.c ****                 destBuffer = cyBle_scanRspData.scanRspData;
1185:Generated_Source\PSoC4/BLE.c ****                 maxLength = cyBle_scanRspData.scanRspDataLen;
1186:Generated_Source\PSoC4/BLE.c ****             }
1187:Generated_Source\PSoC4/BLE.c ****             
1188:Generated_Source\PSoC4/BLE.c ****             while((byteCounter < maxLength) && (flag == 0u))
1189:Generated_Source\PSoC4/BLE.c ****             {
1190:Generated_Source\PSoC4/BLE.c ****                 adLength = destBuffer[byteCounter];
1191:Generated_Source\PSoC4/BLE.c ****                 
1192:Generated_Source\PSoC4/BLE.c ****                 if(0u != adLength)
1193:Generated_Source\PSoC4/BLE.c ****                 {
1194:Generated_Source\PSoC4/BLE.c ****                     /* Increment byte counter so it can point to AD type */
1195:Generated_Source\PSoC4/BLE.c ****                     byteCounter++;
1196:Generated_Source\PSoC4/BLE.c ****                     
1197:Generated_Source\PSoC4/BLE.c ****                     if((destBuffer[byteCounter] == CYBLE_SHORT_LOCAL_NAME) || 
1198:Generated_Source\PSoC4/BLE.c ****                        (destBuffer[byteCounter] == CYBLE_COMPLETE_LOCAL_NAME))
1199:Generated_Source\PSoC4/BLE.c ****                     {
1200:Generated_Source\PSoC4/BLE.c ****                         /* Start of the Local Name AD type was fount. Set flag and exit the loop. *
1201:Generated_Source\PSoC4/BLE.c ****                         flag = 1u;
1202:Generated_Source\PSoC4/BLE.c ****                     }
1203:Generated_Source\PSoC4/BLE.c ****                     else
1204:Generated_Source\PSoC4/BLE.c ****                     {
1205:Generated_Source\PSoC4/BLE.c ****                         byteCounter += adLength;
1206:Generated_Source\PSoC4/BLE.c ****                     }
1207:Generated_Source\PSoC4/BLE.c ****                 }
1208:Generated_Source\PSoC4/BLE.c ****                 else
1209:Generated_Source\PSoC4/BLE.c ****                 {
1210:Generated_Source\PSoC4/BLE.c ****                     /* The end of advertisement data structure was encountered though exit the loop
1211:Generated_Source\PSoC4/BLE.c ****                     break;
1212:Generated_Source\PSoC4/BLE.c ****                 }
1213:Generated_Source\PSoC4/BLE.c ****             }
1214:Generated_Source\PSoC4/BLE.c ****             
1215:Generated_Source\PSoC4/BLE.c ****             if(0u != flag)
1216:Generated_Source\PSoC4/BLE.c ****             {
ARM GAS  C:\Users\jupac\AppData\Local\Temp\cctDRBvI.s 			page 29


1217:Generated_Source\PSoC4/BLE.c ****                 /* Reuse "adLength" to hold location of the last character of local name in 
1218:Generated_Source\PSoC4/BLE.c ****                    AD structure. */
1219:Generated_Source\PSoC4/BLE.c ****                 adLength += byteCounter;
1220:Generated_Source\PSoC4/BLE.c ****                 
1221:Generated_Source\PSoC4/BLE.c ****                 /* Increment byte counter to point to start of the local Name string */
1222:Generated_Source\PSoC4/BLE.c ****                 byteCounter++;
1223:Generated_Source\PSoC4/BLE.c ****                 
1224:Generated_Source\PSoC4/BLE.c ****                 for(i = byteCounter; ((i < (adLength)) && (CYBLE_NULL_CHARCTER != name[i - byteCoun
1225:Generated_Source\PSoC4/BLE.c ****                 {
1226:Generated_Source\PSoC4/BLE.c ****                     destBuffer[i] = (uint8)name[i - byteCounter];
1227:Generated_Source\PSoC4/BLE.c ****                 }
1228:Generated_Source\PSoC4/BLE.c ****                 
1229:Generated_Source\PSoC4/BLE.c ****                 /* This loop handles the case when new local name is shorted than old one.
1230:Generated_Source\PSoC4/BLE.c ****                    In this case all remaining characters should be null characters. */
1231:Generated_Source\PSoC4/BLE.c ****                 while(adLength > i)
1232:Generated_Source\PSoC4/BLE.c ****                 {
1233:Generated_Source\PSoC4/BLE.c ****                     /* Terminate string */
1234:Generated_Source\PSoC4/BLE.c ****                     destBuffer[i] = (uint8)CYBLE_NULL_CHARCTER;
1235:Generated_Source\PSoC4/BLE.c ****                     i++;
1236:Generated_Source\PSoC4/BLE.c ****                 }
1237:Generated_Source\PSoC4/BLE.c ****             }
1238:Generated_Source\PSoC4/BLE.c ****         }
1239:Generated_Source\PSoC4/BLE.c ****         
1240:Generated_Source\PSoC4/BLE.c **** #endif /* (CYBLE_GAP_ROLE_PERIPHERAL) */  
1241:Generated_Source\PSoC4/BLE.c ****     
1242:Generated_Source\PSoC4/BLE.c ****     
1243:Generated_Source\PSoC4/BLE.c ****     /******************************************************************************
1244:Generated_Source\PSoC4/BLE.c ****     * Function Name: CyBle_GapSetLocalName
1245:Generated_Source\PSoC4/BLE.c ****     ***************************************************************************//**
1246:Generated_Source\PSoC4/BLE.c ****     *  This function is used to set the local device name - a Characteristic of the 
1247:Generated_Source\PSoC4/BLE.c ****     *  GAP Service. If the characteristic length entered in the component customizer
1248:Generated_Source\PSoC4/BLE.c ****     *  is shorter than the string specified by the "name" parameter, the local device
1249:Generated_Source\PSoC4/BLE.c ****     *  name will be cut to the length specified in the customizer.
1250:Generated_Source\PSoC4/BLE.c ****     * 
1251:Generated_Source\PSoC4/BLE.c ****     *  \param name: The local device name string. The name string to be written as
1252:Generated_Source\PSoC4/BLE.c ****     *              the local device name. It represents a UTF-8 encoded User
1253:Generated_Source\PSoC4/BLE.c ****     *              Friendly Descriptive Name for the device. The length of the local
1254:Generated_Source\PSoC4/BLE.c ****     *              device string is entered into the component customizer and it can
1255:Generated_Source\PSoC4/BLE.c ****     *              be set to a value from 0 to 248 bytes. If the name contained in
1256:Generated_Source\PSoC4/BLE.c ****     *              the parameter is shorter than the length from the customizer, the
1257:Generated_Source\PSoC4/BLE.c ****     *              end of the name is indicated by a NULL octet (0x00).
1258:Generated_Source\PSoC4/BLE.c ****     * 
1259:Generated_Source\PSoC4/BLE.c ****     * \return
1260:Generated_Source\PSoC4/BLE.c ****     *  CYBLE_API_RESULT_T : Return value indicates if the function succeeded or 
1261:Generated_Source\PSoC4/BLE.c ****     *  failed. Following are the possible error codes.
1262:Generated_Source\PSoC4/BLE.c ****     *
1263:Generated_Source\PSoC4/BLE.c ****     *   Errors codes                       | Description
1264:Generated_Source\PSoC4/BLE.c ****     *   ------------                       | -----------
1265:Generated_Source\PSoC4/BLE.c ****     *   CYBLE_ERROR_OK                     | Function completed successfully.
1266:Generated_Source\PSoC4/BLE.c ****     *   CYBLE_ERROR_INVALID_PARAMETER      | On specifying NULL as input parameter
1267:Generated_Source\PSoC4/BLE.c ****     *  
1268:Generated_Source\PSoC4/BLE.c ****     *******************************************************************************/
1269:Generated_Source\PSoC4/BLE.c ****     CYBLE_API_RESULT_T CyBle_GapSetLocalName(const char8 name[])
1270:Generated_Source\PSoC4/BLE.c ****     {
 380              		.loc 1 1270 0
 381              		.cfi_startproc
 382              		@ args = 0, pretend = 0, frame = 0
ARM GAS  C:\Users\jupac\AppData\Local\Temp\cctDRBvI.s 			page 30


 383              		@ frame_needed = 0, uses_anonymous_args = 0
 384              	.LVL22:
 385 0000 30B5     		push	{r4, r5, lr}
 386              		.cfi_def_cfa_offset 12
 387              		.cfi_offset 4, -12
 388              		.cfi_offset 5, -8
 389              		.cfi_offset 14, -4
 390              	.LVL23:
1271:Generated_Source\PSoC4/BLE.c ****         CYBLE_API_RESULT_T apiResult = CYBLE_ERROR_OK;
1272:Generated_Source\PSoC4/BLE.c ****         uint8 i;
1273:Generated_Source\PSoC4/BLE.c ****         char8 *ptr;
1274:Generated_Source\PSoC4/BLE.c ****         uint8 charLen;
1275:Generated_Source\PSoC4/BLE.c **** 
1276:Generated_Source\PSoC4/BLE.c ****         if(NULL != name)
 391              		.loc 1 1276 0
 392 0002 0028     		cmp	r0, #0
 393 0004 1ED0     		beq	.L29
1277:Generated_Source\PSoC4/BLE.c ****         {
1278:Generated_Source\PSoC4/BLE.c ****             /* Get the pointer to the Device Name characteristic  */
1279:Generated_Source\PSoC4/BLE.c ****             ptr = (char8 *) CYBLE_GATT_DB_ATTR_GET_ATTR_GEN_PTR(cyBle_gaps.deviceNameCharHandle);
 394              		.loc 1 1279 0
 395 0006 114B     		ldr	r3, .L31
 396 0008 5B88     		ldrh	r3, [r3, #2]
 397 000a 013B     		subs	r3, r3, #1
 398 000c 104D     		ldr	r5, .L31+4
 399 000e 9A00     		lsls	r2, r3, #2
 400 0010 D418     		adds	r4, r2, r3
 401 0012 A100     		lsls	r1, r4, #2
 402 0014 6918     		adds	r1, r5, r1
 403 0016 0969     		ldr	r1, [r1, #16]
 404 0018 4C68     		ldr	r4, [r1, #4]
 405              	.LVL24:
1280:Generated_Source\PSoC4/BLE.c **** 
1281:Generated_Source\PSoC4/BLE.c ****             /* First need to get the maximum length of the characteristic data in the GATT
1282:Generated_Source\PSoC4/BLE.c ****                 database to make sure there is enough place for the data. The length
1283:Generated_Source\PSoC4/BLE.c ****                 can't be longer than 248, so only the LSB of 16 bit of length is to
1284:Generated_Source\PSoC4/BLE.c ****                 be used. */
1285:Generated_Source\PSoC4/BLE.c ****             charLen = (uint8)CYBLE_GATT_DB_ATTR_GET_ATTR_GEN_MAX_LEN(cyBle_gaps.deviceNameCharHandl
 406              		.loc 1 1285 0
 407 001a D318     		adds	r3, r2, r3
 408 001c 9A00     		lsls	r2, r3, #2
 409 001e AA18     		adds	r2, r5, r2
 410 0020 117B     		ldrb	r1, [r2, #12]
 411              	.LVL25:
1286:Generated_Source\PSoC4/BLE.c **** 
1287:Generated_Source\PSoC4/BLE.c ****             /* Copy name into characteristic */
1288:Generated_Source\PSoC4/BLE.c ****             for(i = 0u; ((i < charLen) && (CYBLE_NULL_CHARCTER != name[i])); i++)
 412              		.loc 1 1288 0
 413 0022 0023     		movs	r3, #0
 414 0024 02E0     		b	.L26
 415              	.LVL26:
 416              	.L28:
1289:Generated_Source\PSoC4/BLE.c ****             {
1290:Generated_Source\PSoC4/BLE.c ****                 ptr[i] = name[i];
 417              		.loc 1 1290 0 discriminator 4
 418 0026 E254     		strb	r2, [r4, r3]
1288:Generated_Source\PSoC4/BLE.c ****             {
ARM GAS  C:\Users\jupac\AppData\Local\Temp\cctDRBvI.s 			page 31


 419              		.loc 1 1288 0 discriminator 4
 420 0028 0133     		adds	r3, r3, #1
 421              	.LVL27:
 422 002a DBB2     		uxtb	r3, r3
 423              	.LVL28:
 424              	.L26:
1288:Generated_Source\PSoC4/BLE.c ****             {
 425              		.loc 1 1288 0 is_stmt 0 discriminator 1
 426 002c 8B42     		cmp	r3, r1
 427 002e 02D2     		bcs	.L27
1288:Generated_Source\PSoC4/BLE.c ****             {
 428              		.loc 1 1288 0 discriminator 3
 429 0030 C25C     		ldrb	r2, [r0, r3]
 430 0032 002A     		cmp	r2, #0
 431 0034 F7D1     		bne	.L28
 432              	.L27:
1291:Generated_Source\PSoC4/BLE.c ****             }
1292:Generated_Source\PSoC4/BLE.c **** 
1293:Generated_Source\PSoC4/BLE.c ****             if(i < charLen)
 433              		.loc 1 1293 0 is_stmt 1
 434 0036 8B42     		cmp	r3, r1
 435 0038 06D2     		bcs	.L30
1294:Generated_Source\PSoC4/BLE.c ****             {
1295:Generated_Source\PSoC4/BLE.c ****                 /* Terminate string */
1296:Generated_Source\PSoC4/BLE.c ****                 ptr[i] = CYBLE_NULL_CHARCTER;
 436              		.loc 1 1296 0
 437 003a E318     		adds	r3, r4, r3
 438              	.LVL29:
 439 003c 0022     		movs	r2, #0
 440 003e 1A70     		strb	r2, [r3]
1271:Generated_Source\PSoC4/BLE.c ****         uint8 i;
 441              		.loc 1 1271 0
 442 0040 0020     		movs	r0, #0
 443              	.LVL30:
 444 0042 02E0     		b	.L25
 445              	.LVL31:
 446              	.L29:
1297:Generated_Source\PSoC4/BLE.c ****             }
1298:Generated_Source\PSoC4/BLE.c ****             
1299:Generated_Source\PSoC4/BLE.c ****             /* Set new actual length */
1300:Generated_Source\PSoC4/BLE.c ****             
1301:Generated_Source\PSoC4/BLE.c ****             /* Update device name in advertising and scan response structure */
1302:Generated_Source\PSoC4/BLE.c ****             #if(CYBLE_GAP_ROLE_PERIPHERAL)
1303:Generated_Source\PSoC4/BLE.c ****                 CyBle_ChangeAdLocalName(name, 0u);
1304:Generated_Source\PSoC4/BLE.c ****                 CyBle_ChangeAdLocalName(name, 1u);
1305:Generated_Source\PSoC4/BLE.c ****             #endif /* (CYBLE_GAP_ROLE_PERIPHERAL) */
1306:Generated_Source\PSoC4/BLE.c ****         }
1307:Generated_Source\PSoC4/BLE.c ****         else
1308:Generated_Source\PSoC4/BLE.c ****         {
1309:Generated_Source\PSoC4/BLE.c ****             apiResult = CYBLE_ERROR_INVALID_PARAMETER;
 447              		.loc 1 1309 0
 448 0044 0120     		movs	r0, #1
 449              	.LVL32:
 450 0046 00E0     		b	.L25
 451              	.LVL33:
 452              	.L30:
1271:Generated_Source\PSoC4/BLE.c ****         uint8 i;
ARM GAS  C:\Users\jupac\AppData\Local\Temp\cctDRBvI.s 			page 32


 453              		.loc 1 1271 0
 454 0048 0020     		movs	r0, #0
 455              	.LVL34:
 456              	.L25:
1310:Generated_Source\PSoC4/BLE.c ****         }
1311:Generated_Source\PSoC4/BLE.c ****         
1312:Generated_Source\PSoC4/BLE.c ****         return(apiResult);
1313:Generated_Source\PSoC4/BLE.c ****     }
 457              		.loc 1 1313 0
 458              		@ sp needed
 459 004a 30BD     		pop	{r4, r5, pc}
 460              	.L32:
 461              		.align	2
 462              	.L31:
 463 004c 00000000 		.word	cyBle_gaps
 464 0050 00000000 		.word	cyBle_gattDB
 465              		.cfi_endproc
 466              	.LFE8:
 467              		.size	CyBle_GapSetLocalName, .-CyBle_GapSetLocalName
 468              		.section	.text.CyBle_GapGetLocalName,"ax",%progbits
 469              		.align	2
 470              		.global	CyBle_GapGetLocalName
 471              		.code	16
 472              		.thumb_func
 473              		.type	CyBle_GapGetLocalName, %function
 474              	CyBle_GapGetLocalName:
 475              	.LFB9:
1314:Generated_Source\PSoC4/BLE.c **** 
1315:Generated_Source\PSoC4/BLE.c **** 
1316:Generated_Source\PSoC4/BLE.c ****     /******************************************************************************
1317:Generated_Source\PSoC4/BLE.c ****     * Function Name: CyBle_GapGetLocalName
1318:Generated_Source\PSoC4/BLE.c ****     ***************************************************************************//**
1319:Generated_Source\PSoC4/BLE.c ****     *  
1320:Generated_Source\PSoC4/BLE.c ****     *  This function is used to read the local device name - a Characteristic of the 
1321:Generated_Source\PSoC4/BLE.c ****     *  GAP Service.
1322:Generated_Source\PSoC4/BLE.c ****     * 
1323:Generated_Source\PSoC4/BLE.c ****     * \param name: The local device name string. Used to read the local name to the
1324:Generated_Source\PSoC4/BLE.c ****     *             given string array. It represents a UTF-8 encoded User Friendly 
1325:Generated_Source\PSoC4/BLE.c ****     *             Descriptive Name for the device. The length of the local device
1326:Generated_Source\PSoC4/BLE.c ****     *             string is entered into the component customizer and it can be set
1327:Generated_Source\PSoC4/BLE.c ****     *             to a value from 0 to 248 bytes. If the name contained in the
1328:Generated_Source\PSoC4/BLE.c ****     *             parameter is shorter than the length from the customizer, the end
1329:Generated_Source\PSoC4/BLE.c ****     *             of the name is indicated by a NULL octet (0x00).
1330:Generated_Source\PSoC4/BLE.c ****     * 
1331:Generated_Source\PSoC4/BLE.c ****     * \return
1332:Generated_Source\PSoC4/BLE.c ****     *  CYBLE_API_RESULT_T : Return value indicates if the function succeeded or 
1333:Generated_Source\PSoC4/BLE.c ****     *  failed. Following are the possible error codes.
1334:Generated_Source\PSoC4/BLE.c ****     *
1335:Generated_Source\PSoC4/BLE.c ****     *   Errors codes                       | Description
1336:Generated_Source\PSoC4/BLE.c ****     *   ------------                       | -----------
1337:Generated_Source\PSoC4/BLE.c ****     *   CYBLE_ERROR_OK                     | Function completed successfully.
1338:Generated_Source\PSoC4/BLE.c ****     *   CYBLE_ERROR_INVALID_PARAMETER      | On specifying NULL as input parameter
1339:Generated_Source\PSoC4/BLE.c ****     *
1340:Generated_Source\PSoC4/BLE.c ****     *******************************************************************************/
1341:Generated_Source\PSoC4/BLE.c ****     CYBLE_API_RESULT_T CyBle_GapGetLocalName(char8 name[])
1342:Generated_Source\PSoC4/BLE.c ****     {
 476              		.loc 1 1342 0
ARM GAS  C:\Users\jupac\AppData\Local\Temp\cctDRBvI.s 			page 33


 477              		.cfi_startproc
 478              		@ args = 0, pretend = 0, frame = 0
 479              		@ frame_needed = 0, uses_anonymous_args = 0
 480              	.LVL35:
 481 0000 10B5     		push	{r4, lr}
 482              		.cfi_def_cfa_offset 8
 483              		.cfi_offset 4, -8
 484              		.cfi_offset 14, -4
 485              	.LVL36:
1343:Generated_Source\PSoC4/BLE.c ****         CYBLE_API_RESULT_T apiResult = CYBLE_ERROR_OK;
1344:Generated_Source\PSoC4/BLE.c ****         uint8 charLen;
1345:Generated_Source\PSoC4/BLE.c ****         uint8 i;
1346:Generated_Source\PSoC4/BLE.c ****         char8 *ptr;
1347:Generated_Source\PSoC4/BLE.c **** 
1348:Generated_Source\PSoC4/BLE.c ****         if(NULL != name)
 486              		.loc 1 1348 0
 487 0002 0028     		cmp	r0, #0
 488 0004 19D0     		beq	.L38
1349:Generated_Source\PSoC4/BLE.c ****         {
1350:Generated_Source\PSoC4/BLE.c ****             /* Get the pointer to the Device Name characteristic  */
1351:Generated_Source\PSoC4/BLE.c ****             ptr = (char8 *) CYBLE_GATT_DB_ATTR_GET_ATTR_GEN_PTR(cyBle_gaps.deviceNameCharHandle);
 489              		.loc 1 1351 0
 490 0006 0E4B     		ldr	r3, .L39
 491 0008 5B88     		ldrh	r3, [r3, #2]
 492 000a 013B     		subs	r3, r3, #1
 493 000c 9A00     		lsls	r2, r3, #2
 494 000e D318     		adds	r3, r2, r3
 495 0010 9A00     		lsls	r2, r3, #2
 496 0012 0C4B     		ldr	r3, .L39+4
 497 0014 9A18     		adds	r2, r3, r2
 498 0016 1369     		ldr	r3, [r2, #16]
 499 0018 5C68     		ldr	r4, [r3, #4]
 500              	.LVL37:
1352:Generated_Source\PSoC4/BLE.c **** 
1353:Generated_Source\PSoC4/BLE.c ****             /* First need to get the length of the characteristic data in the GATT
1354:Generated_Source\PSoC4/BLE.c ****                 database to make sure there is enough place for the data. The length
1355:Generated_Source\PSoC4/BLE.c ****                 can't be longer than 248, so only the LSB of 16 bit of length is to
1356:Generated_Source\PSoC4/BLE.c ****                 be used. */
1357:Generated_Source\PSoC4/BLE.c ****             charLen = (uint8)CYBLE_GATT_DB_ATTR_GET_ATTR_GEN_LEN(cyBle_gaps.deviceNameCharHandle);
 501              		.loc 1 1357 0
 502 001a 1978     		ldrb	r1, [r3]
 503              	.LVL38:
1358:Generated_Source\PSoC4/BLE.c **** 
1359:Generated_Source\PSoC4/BLE.c ****             /* Copy name from characteristic */
1360:Generated_Source\PSoC4/BLE.c ****             for(i = 0u; ((i < charLen) && (CYBLE_NULL_CHARCTER != ptr[i])); i++)
 504              		.loc 1 1360 0
 505 001c 0023     		movs	r3, #0
 506 001e 02E0     		b	.L35
 507              	.LVL39:
 508              	.L37:
1361:Generated_Source\PSoC4/BLE.c ****             {
1362:Generated_Source\PSoC4/BLE.c ****                 name[i] = ptr[i];
 509              		.loc 1 1362 0 discriminator 4
 510 0020 C254     		strb	r2, [r0, r3]
1360:Generated_Source\PSoC4/BLE.c ****             {
 511              		.loc 1 1360 0 discriminator 4
 512 0022 0133     		adds	r3, r3, #1
ARM GAS  C:\Users\jupac\AppData\Local\Temp\cctDRBvI.s 			page 34


 513              	.LVL40:
 514 0024 DBB2     		uxtb	r3, r3
 515              	.LVL41:
 516              	.L35:
1360:Generated_Source\PSoC4/BLE.c ****             {
 517              		.loc 1 1360 0 is_stmt 0 discriminator 1
 518 0026 8B42     		cmp	r3, r1
 519 0028 02D2     		bcs	.L36
1360:Generated_Source\PSoC4/BLE.c ****             {
 520              		.loc 1 1360 0 discriminator 3
 521 002a E25C     		ldrb	r2, [r4, r3]
 522 002c 002A     		cmp	r2, #0
 523 002e F7D1     		bne	.L37
 524              	.L36:
1363:Generated_Source\PSoC4/BLE.c ****             }
1364:Generated_Source\PSoC4/BLE.c **** 
1365:Generated_Source\PSoC4/BLE.c ****             /* Terminate string */
1366:Generated_Source\PSoC4/BLE.c ****             name[i] = CYBLE_NULL_CHARCTER;
 525              		.loc 1 1366 0 is_stmt 1
 526 0030 C318     		adds	r3, r0, r3
 527              	.LVL42:
 528 0032 0022     		movs	r2, #0
 529 0034 1A70     		strb	r2, [r3]
1343:Generated_Source\PSoC4/BLE.c ****         uint8 charLen;
 530              		.loc 1 1343 0
 531 0036 0020     		movs	r0, #0
 532              	.LVL43:
 533 0038 00E0     		b	.L34
 534              	.LVL44:
 535              	.L38:
1367:Generated_Source\PSoC4/BLE.c ****         }
1368:Generated_Source\PSoC4/BLE.c ****         else
1369:Generated_Source\PSoC4/BLE.c ****         {
1370:Generated_Source\PSoC4/BLE.c ****             apiResult = CYBLE_ERROR_INVALID_PARAMETER;
 536              		.loc 1 1370 0
 537 003a 0120     		movs	r0, #1
 538              	.LVL45:
 539              	.L34:
1371:Generated_Source\PSoC4/BLE.c ****         }
1372:Generated_Source\PSoC4/BLE.c ****         
1373:Generated_Source\PSoC4/BLE.c ****         return(apiResult);
1374:Generated_Source\PSoC4/BLE.c ****     }
 540              		.loc 1 1374 0
 541              		@ sp needed
 542 003c 10BD     		pop	{r4, pc}
 543              	.L40:
 544 003e C046     		.align	2
 545              	.L39:
 546 0040 00000000 		.word	cyBle_gaps
 547 0044 00000000 		.word	cyBle_gattDB
 548              		.cfi_endproc
 549              	.LFE9:
 550              		.size	CyBle_GapGetLocalName, .-CyBle_GapGetLocalName
 551              		.section	.text.CyBle_Get16ByPtr,"ax",%progbits
 552              		.align	2
 553              		.global	CyBle_Get16ByPtr
 554              		.code	16
ARM GAS  C:\Users\jupac\AppData\Local\Temp\cctDRBvI.s 			page 35


 555              		.thumb_func
 556              		.type	CyBle_Get16ByPtr, %function
 557              	CyBle_Get16ByPtr:
 558              	.LFB10:
1375:Generated_Source\PSoC4/BLE.c **** 
1376:Generated_Source\PSoC4/BLE.c **** #endif /* (CYBLE_GATT_ROLE_SERVER) */
1377:Generated_Source\PSoC4/BLE.c **** 
1378:Generated_Source\PSoC4/BLE.c **** 
1379:Generated_Source\PSoC4/BLE.c **** /******************************************************************************
1380:Generated_Source\PSoC4/BLE.c **** * Function Name: CyBle_Get16ByPtr
1381:Generated_Source\PSoC4/BLE.c **** ***************************************************************************//**
1382:Generated_Source\PSoC4/BLE.c **** * 
1383:Generated_Source\PSoC4/BLE.c **** *  Returns the two-bytes value by using a pointer to the LSB.
1384:Generated_Source\PSoC4/BLE.c **** * 
1385:Generated_Source\PSoC4/BLE.c **** *  \param ptr: Pointer to the LSB of two-bytes data (little endian).
1386:Generated_Source\PSoC4/BLE.c **** * 
1387:Generated_Source\PSoC4/BLE.c **** *  \return
1388:Generated_Source\PSoC4/BLE.c **** *  uint16: Two-bytes data.
1389:Generated_Source\PSoC4/BLE.c **** * 
1390:Generated_Source\PSoC4/BLE.c **** ******************************************************************************/
1391:Generated_Source\PSoC4/BLE.c **** uint16 CyBle_Get16ByPtr(const uint8 ptr[])
1392:Generated_Source\PSoC4/BLE.c **** {
 559              		.loc 1 1392 0
 560              		.cfi_startproc
 561              		@ args = 0, pretend = 0, frame = 0
 562              		@ frame_needed = 0, uses_anonymous_args = 0
 563              		@ link register save eliminated.
 564              	.LVL46:
1393:Generated_Source\PSoC4/BLE.c ****     return ((uint16) ptr[0u] | ((uint16) (((uint16) ptr[1u]) << 8u)));
 565              		.loc 1 1393 0
 566 0000 0378     		ldrb	r3, [r0]
 567 0002 4078     		ldrb	r0, [r0, #1]
 568              	.LVL47:
 569 0004 0002     		lsls	r0, r0, #8
 570 0006 1843     		orrs	r0, r3
1394:Generated_Source\PSoC4/BLE.c **** }
 571              		.loc 1 1394 0
 572              		@ sp needed
 573 0008 7047     		bx	lr
 574              		.cfi_endproc
 575              	.LFE10:
 576              		.size	CyBle_Get16ByPtr, .-CyBle_Get16ByPtr
 577 000a C046     		.section	.text.CyBle_Set16ByPtr,"ax",%progbits
 578              		.align	2
 579              		.global	CyBle_Set16ByPtr
 580              		.code	16
 581              		.thumb_func
 582              		.type	CyBle_Set16ByPtr, %function
 583              	CyBle_Set16ByPtr:
 584              	.LFB11:
1395:Generated_Source\PSoC4/BLE.c **** 
1396:Generated_Source\PSoC4/BLE.c **** 
1397:Generated_Source\PSoC4/BLE.c **** /******************************************************************************
1398:Generated_Source\PSoC4/BLE.c **** * Function Name: CyBle_Set16ByPtr
1399:Generated_Source\PSoC4/BLE.c **** ***************************************************************************//**
1400:Generated_Source\PSoC4/BLE.c **** * 
1401:Generated_Source\PSoC4/BLE.c **** *  Sets the two-bytes value by using a pointer to the LSB.
ARM GAS  C:\Users\jupac\AppData\Local\Temp\cctDRBvI.s 			page 36


1402:Generated_Source\PSoC4/BLE.c **** * 
1403:Generated_Source\PSoC4/BLE.c **** *  \param ptr:    Pointer to the LSB of two-bytes data (little endian).
1404:Generated_Source\PSoC4/BLE.c **** *  \param value:  Two-bytes data to be written.
1405:Generated_Source\PSoC4/BLE.c **** * 
1406:Generated_Source\PSoC4/BLE.c **** *  \return
1407:Generated_Source\PSoC4/BLE.c **** *  None
1408:Generated_Source\PSoC4/BLE.c **** * 
1409:Generated_Source\PSoC4/BLE.c **** ******************************************************************************/
1410:Generated_Source\PSoC4/BLE.c **** void CyBle_Set16ByPtr(uint8 ptr[], uint16 value)
1411:Generated_Source\PSoC4/BLE.c **** {
 585              		.loc 1 1411 0
 586              		.cfi_startproc
 587              		@ args = 0, pretend = 0, frame = 0
 588              		@ frame_needed = 0, uses_anonymous_args = 0
 589              		@ link register save eliminated.
 590              	.LVL48:
1412:Generated_Source\PSoC4/BLE.c ****     ptr[0u] = (uint8) value;
 591              		.loc 1 1412 0
 592 0000 0170     		strb	r1, [r0]
1413:Generated_Source\PSoC4/BLE.c ****     ptr[1u] = (uint8) (value >> 8u);
 593              		.loc 1 1413 0
 594 0002 090A     		lsrs	r1, r1, #8
 595              	.LVL49:
 596 0004 4170     		strb	r1, [r0, #1]
1414:Generated_Source\PSoC4/BLE.c **** }
 597              		.loc 1 1414 0
 598              		@ sp needed
 599 0006 7047     		bx	lr
 600              		.cfi_endproc
 601              	.LFE11:
 602              		.size	CyBle_Set16ByPtr, .-CyBle_Set16ByPtr
 603              		.global	cyBle_sflashDeviceAddress
 604              		.global	cyBle_deviceAddress
 605              		.comm	CyBle_ApplCallback,4,4
 606              		.global	cyBle_discoveryInfo
 607              		.global	cyBle_stackMemoryRam
 608              		.global	cyBle_initVar
 609              		.section	.rodata
 610              		.align	2
 611              		.set	.LANCHOR0,. + 0
 612              	.LC0:
 613 0000 2400     		.short	36
 614 0002 03       		.byte	3
 615 0003 00       		.space	1
 616 0004 3000     		.short	48
 617 0006 01       		.byte	1
 618 0007 00       		.space	1
 619 0008 2800     		.short	40
 620 000a 02       		.byte	2
 621 000b 00       		.space	1
 622 000c 2400     		.short	36
 623 000e 01       		.byte	1
 624 000f 00       		.space	1
 625 0010 2400     		.short	36
 626 0012 01       		.byte	1
 627 0013 00       		.space	1
 628              		.data
ARM GAS  C:\Users\jupac\AppData\Local\Temp\cctDRBvI.s 			page 37


 629              		.align	2
 630              		.set	.LANCHOR3,. + 0
 631              		.type	cyBle_discoveryInfo, %object
 632              		.size	cyBle_discoveryInfo, 12
 633              	cyBle_discoveryInfo:
 634 0000 00       		.byte	0
 635 0001 00       		.byte	0
 636 0002 2003     		.short	800
 637 0004 2003     		.short	800
 638 0006 00       		.byte	0
 639 0007 00       		.byte	0
 640 0008 0000     		.short	0
 641 000a 00       		.byte	0
 642 000b 00       		.space	1
 643              		.type	cyBle_sflashDeviceAddress, %object
 644              		.size	cyBle_sflashDeviceAddress, 4
 645              	cyBle_sflashDeviceAddress:
 646 000c 00F4FF0F 		.word	268432384
 647              		.type	cyBle_deviceAddress, %object
 648              		.size	cyBle_deviceAddress, 7
 649              	cyBle_deviceAddress:
 650 0010 00       		.byte	0
 651 0011 00       		.byte	0
 652 0012 00       		.byte	0
 653 0013 50       		.byte	80
 654 0014 A0       		.byte	-96
 655 0015 00       		.byte	0
 656 0016 00       		.byte	0
 657              		.section	.noinit,"aw",%progbits
 658              		.align	3
 659              		.set	.LANCHOR2,. + 0
 660              		.type	cyBle_stackMemoryRam, %object
 661              		.size	cyBle_stackMemoryRam, 3568
 662              	cyBle_stackMemoryRam:
 663 0000 00000000 		.space	3568
 663      00000000 
 663      00000000 
 663      00000000 
 663      00000000 
 664              		.bss
 665              		.set	.LANCHOR1,. + 0
 666              		.type	cyBle_initVar, %object
 667              		.size	cyBle_initVar, 1
 668              	cyBle_initVar:
 669 0000 00       		.space	1
 670              		.text
 671              	.Letext0:
 672              		.file 2 "Generated_Source\\PSoC4\\cytypes.h"
 673              		.file 3 "Generated_Source\\PSoC4\\BLE_Stack.h"
 674              		.file 4 "Generated_Source\\PSoC4\\BLE_StackGap.h"
 675              		.file 5 "Generated_Source\\PSoC4\\BLE_StackGatt.h"
 676              		.file 6 "Generated_Source\\PSoC4\\BLE_StackGattDb.h"
 677              		.file 7 "Generated_Source\\PSoC4\\BLE.h"
 678              		.file 8 "Generated_Source\\PSoC4\\BLE_gatt.h"
 679              		.file 9 "Generated_Source\\PSoC4\\BLE_eventHandler.h"