ARM GAS  C:\Users\jupac\AppData\Local\Temp\ccAAy4F9.s 			page 1


   1              		.syntax unified
   2              		.cpu cortex-m0
   3              		.fpu softvfp
   4              		.eabi_attribute 20, 1
   5              		.eabi_attribute 21, 1
   6              		.eabi_attribute 23, 3
   7              		.eabi_attribute 24, 1
   8              		.eabi_attribute 25, 1
   9              		.eabi_attribute 26, 1
  10              		.eabi_attribute 30, 1
  11              		.eabi_attribute 34, 0
  12              		.eabi_attribute 18, 4
  13              		.thumb
  14              		.syntax unified
  15              		.file	"main.c"
  16              		.text
  17              	.Ltext0:
  18              		.cfi_sections	.debug_frame
  19              		.section	.text.AppCallBack,"ax",%progbits
  20              		.align	2
  21              		.global	AppCallBack
  22              		.code	16
  23              		.thumb_func
  24              		.type	AppCallBack, %function
  25              	AppCallBack:
  26              	.LFB36:
  27              		.file 1 "main.c"
   1:main.c        **** /* ========================================
   2:main.c        ****  *
   3:main.c        ****  * Copyright YOUR COMPANY, THE YEAR
   4:main.c        ****  * All Rights Reserved
   5:main.c        ****  * UNPUBLISHED, LICENSED SOFTWARE.
   6:main.c        ****  *a+
   7:main.c        ****  * CONFIDENTIAL AND PROPRIETARY INFORMATION
   8:main.c        ****  * WHICH IS THE PROPERTY OF your company.
   9:main.c        ****  *
  10:main.c        ****  * ========================================
  11:main.c        **** */
  12:main.c        **** #include "project.h"
  13:main.c        **** #include <stdio.h>
  14:main.c        **** #include <stdlib.h>
  15:main.c        **** 
  16:main.c        **** uint16_t contador=0; //Variable que se utiliza para contar las tramas recibidas
  17:main.c        **** char databeacon[255]={0}; //Variable que se utiliza para copiar la trama recibida y poder mostrarla
  18:main.c        **** 
  19:main.c        **** //Variables conceptuales, juntas componen la trama, el encabezado fijo + la UUID
  20:main.c        **** //const uint8_t UUID_BEACON[16] = {0x01, 0x02, 0x03, 0x04, 0x05, 0x06, 0x07, 0x08, 0x09, 0x0A, 0x0B
  21:main.c        **** //const uint8_t HEADER_BEACON[9] = {0x02, 0x01, 0x04, 0x1A, 0xFF, 0x4C, 0x00, 0x02, 0x15};
  22:main.c        **** 
  23:main.c        **** const uint8_t BEACON_LENGHT=30;//Longitud de la trama 25+5 Bytes no pertenecientes a la UUID
  24:main.c        **** 
  25:main.c        **** //TRAMA_X, TRAMA_Y, TRAMA_Z Se definen las tres siempre, por simpleza en los cambios, son las trama
  26:main.c        **** const uint8_t HEADER_AND_UUID_BEACONX[25]={0x02, 0x01, 0x04, 0x1A, 0xFF, 0x4C, 0x00, 0x02, 0x15, 0x
  27:main.c        **** const uint8_t HEADER_AND_UUID_BEACONY[25]={0x02, 0x01, 0x04, 0x1A, 0xFF, 0x4C, 0x00, 0x02, 0x15, 0x
  28:main.c        **** const uint8_t HEADER_AND_UUID_BEACONZ[25]={0x02, 0x01, 0x04, 0x1A, 0xFF, 0x4C, 0x00, 0x02, 0x15, 0x
  29:main.c        **** /**
  30:main.c        ****  *FUNCIÓN DE CALLBACK
ARM GAS  C:\Users\jupac\AppData\Local\Temp\ccAAy4F9.s 			page 2


  31:main.c        ****  *Esta función establece las acciones que debe realizar el dispositivo en respuesta a diferentes e
  32:main.c        ****  * @brief                   BLE module application callback.
  33:main.c        ****  * @param[in] event         Type of BLE event as defined in the BLE Stack.
  34:main.c        ****  * @param[in] eventParam    Parameters associated with the specific BLE event.
  35:main.c        ****  */
  36:main.c        **** void AppCallBack(uint32 event, void *eventParam)
  37:main.c        **** {
  28              		.loc 1 37 0
  29              		.cfi_startproc
  30              		@ args = 0, pretend = 0, frame = 0
  31              		@ frame_needed = 0, uses_anonymous_args = 0
  32              	.LVL0:
  33 0000 10B5     		push	{r4, lr}
  34              		.cfi_def_cfa_offset 8
  35              		.cfi_offset 4, -8
  36              		.cfi_offset 14, -4
  38:main.c        ****     (void) eventParam;
  39:main.c        **** 
  40:main.c        ****     switch (event)
  37              		.loc 1 40 0
  38 0002 0128     		cmp	r0, #1
  39 0004 02D0     		beq	.L3
  40 0006 2028     		cmp	r0, #32
  41 0008 04D0     		beq	.L4
  42 000a 11E0     		b	.L1
  43              	.L3:
  44              	.LBB2:
  41:main.c        ****     {
  42:main.c        ****         
  43:main.c        ****     //Puntero del tipo CYBLE_GAPC_ADV_REPORT_T llamado advReport iniciado a NULL
  44:main.c        ****     CYBLE_GAPC_ADV_REPORT_T *advReport = NULL;
  45:main.c        ****         
  46:main.c        ****     //Evento que sucede al iniciar el dispositivo    
  47:main.c        ****     case CYBLE_EVT_STACK_ON:
  48:main.c        ****         //Comenzar a escanear
  49:main.c        ****         CyBle_GapcStartScan(CYBLE_SCANNING_FAST);
  45              		.loc 1 49 0
  46 000c 0020     		movs	r0, #0
  47              	.LVL1:
  48 000e FFF7FEFF 		bl	CyBle_GapcStartScan
  49              	.LVL2:
  50:main.c        ****         break;
  50              		.loc 1 50 0
  51 0012 0DE0     		b	.L1
  52              	.LVL3:
  53              	.L4:
  51:main.c        ****     
  52:main.c        ****     /*Cada vez que se escanea un dispositivo sucede este evento, donde se puede operar con los resu
  53:main.c        ****     case CYBLE_EVT_GAPC_SCAN_PROGRESS_RESULT:
  54:main.c        ****         
  55:main.c        ****         //Cuanto más tiempo se pierda, menor será la eficiencia, por ello se intenta detectar que
  56:main.c        ****         
  57:main.c        ****         //Variable que se utiliza para poder acceder a datos obtenidos en el escaneo
  58:main.c        ****         advReport = (CYBLE_GAPC_ADV_REPORT_T*)eventParam;
  59:main.c        ****         
  60:main.c        **** //        SECCIÓN 1: DEBE COMENTARSE PARA VER TODAS LAS TRAMAS QUE LLEGAN
  61:main.c        ****         
ARM GAS  C:\Users\jupac\AppData\Local\Temp\ccAAy4F9.s 			page 3


  62:main.c        ****         /*Si las tramas escaneadas no son de la longitud correcta se termina el evento*/
  63:main.c        ****         if(advReport->dataLen!=BEACON_LENGHT){
  54              		.loc 1 63 0
  55 0014 0B7A     		ldrb	r3, [r1, #8]
  56 0016 1E2B     		cmp	r3, #30
  57 0018 0AD1     		bne	.L1
  64:main.c        ****             break;
  65:main.c        ****         }
  66:main.c        ****         
  67:main.c        ****         /*Se comprueba si la trama es de nuestra red y si no lo es, se termina el evento*/
  68:main.c        ****         if (memcmp (&HEADER_AND_UUID_BEACONX[0], &advReport->data[0], 25)!=0){
  58              		.loc 1 68 0
  59 001a C968     		ldr	r1, [r1, #12]
  60              	.LVL4:
  61 001c 1922     		movs	r2, #25
  62 001e 0548     		ldr	r0, .L5
  63              	.LVL5:
  64 0020 FFF7FEFF 		bl	memcmp
  65              	.LVL6:
  66 0024 0028     		cmp	r0, #0
  67 0026 03D1     		bne	.L1
  69:main.c        ****             break;            
  70:main.c        ****         }
  71:main.c        ****         
  72:main.c        ****         
  73:main.c        ****         // FIN SECCIÓN 1
  74:main.c        ****         
  75:main.c        ****         //Contador utilizado para contabilizar las tramas recibidas, solo aumenta cuando la trama r
  76:main.c        ****         //dentro de las buscadas
  77:main.c        ****         contador++;
  68              		.loc 1 77 0
  69 0028 034A     		ldr	r2, .L5+4
  70 002a 1388     		ldrh	r3, [r2]
  71 002c 0133     		adds	r3, r3, #1
  72 002e 1380     		strh	r3, [r2]
  73              	.LVL7:
  74              	.L1:
  75              	.LBE2:
  78:main.c        ****         
  79:main.c        ****         //SECCIÓN 2: LAS LÍNEAS SIGUIENTES DEBEN DEJAR DE SER CONSIDERADAS COMO COMENTARIO
  80:main.c        ****         //SI SE QUIERE VER POR PANTALLA EL CONTENIDO DE LAS TRAMAS
  81:main.c        ****         
  82:main.c        **** //        
  83:main.c        **** //        memcmp(databeacon, advReport->data, advReport->dataLen);
  84:main.c        **** //        for (uint32 i=0; i<advReport->dataLen; i++){
  85:main.c        **** //            
  86:main.c        **** //            snprintf(databeacon, 255, "%02x", advReport->data[i]);
  87:main.c        **** //            UART_PutString(databeacon);
  88:main.c        **** //            UART_PutString(",");
  89:main.c        **** //            memset(databeacon, 0, 255);
  90:main.c        **** //            //snprintf(&databeacon[i], 255,"%x", advReport->data[i] );
  91:main.c        **** //            
  92:main.c        **** //            //copiamos en data beacon lo que llega en el advReport
  93:main.c        **** //            
  94:main.c        **** //        }
  95:main.c        **** //        UART_PutString("\r\n,");
  96:main.c        **** //        CyDelay(500);
ARM GAS  C:\Users\jupac\AppData\Local\Temp\ccAAy4F9.s 			page 4


  97:main.c        ****         
  98:main.c        ****         
  99:main.c        ****         // FIN SECCIÓN 2
 100:main.c        ****            
 101:main.c        ****         
 102:main.c        ****         break;
 103:main.c        ****     //Evento que sucede al iniciarse o detenerse el escaneo    
 104:main.c        ****     case CYBLE_EVT_GAPC_SCAN_START_STOP :
 105:main.c        ****         break; 
 106:main.c        ****         
 107:main.c        ****     default:
 108:main.c        ****         break;
 109:main.c        ****     }
 110:main.c        **** }
  76              		.loc 1 110 0
  77              		@ sp needed
  78 0030 10BD     		pop	{r4, pc}
  79              	.L6:
  80 0032 C046     		.align	2
  81              	.L5:
  82 0034 00000000 		.word	.LANCHOR0
  83 0038 00000000 		.word	.LANCHOR1
  84              		.cfi_endproc
  85              	.LFE36:
  86              		.size	AppCallBack, .-AppCallBack
  87              		.section	.text.main,"ax",%progbits
  88              		.align	2
  89              		.global	main
  90              		.code	16
  91              		.thumb_func
  92              		.type	main, %function
  93              	main:
  94              	.LFB37:
 111:main.c        **** 
 112:main.c        **** 
 113:main.c        **** int main(void)
 114:main.c        **** {
  95              		.loc 1 114 0
  96              		.cfi_startproc
  97              		@ args = 0, pretend = 0, frame = 256
  98              		@ frame_needed = 0, uses_anonymous_args = 0
  99 0000 00B5     		push	{lr}
 100              		.cfi_def_cfa_offset 4
 101              		.cfi_offset 14, -4
 102 0002 C1B0     		sub	sp, sp, #260
 103              		.cfi_def_cfa_offset 264
 115:main.c        ****     char PrintBuffer[255]={0}; //Variable que utilizamos para que la UART pueda mostrar el valor de
 104              		.loc 1 115 0
 105 0004 FF22     		movs	r2, #255
 106 0006 0021     		movs	r1, #0
 107 0008 6846     		mov	r0, sp
 108 000a FFF7FEFF 		bl	memset
 109              	.LVL8:
 116:main.c        ****     CyGlobalIntEnable; /* Enable global interrupts. */
 110              		.loc 1 116 0
 111              		.syntax divided
 112              	@ 116 "main.c" 1
ARM GAS  C:\Users\jupac\AppData\Local\Temp\ccAAy4F9.s 			page 5


 113 000e 62B6     		CPSIE   i
 114              	@ 0 "" 2
 117:main.c        ****     
 118:main.c        ****     CyBle_Start(AppCallBack);//Se inicia el dispositivo a través de la función de callback, que g
 115              		.loc 1 118 0
 116              		.thumb
 117              		.syntax unified
 118 0010 0D48     		ldr	r0, .L9
 119 0012 FFF7FEFF 		bl	CyBle_Start
 120              	.LVL9:
 119:main.c        ****     UART_Start();//Se inicia la UART, para poder mostrar datos por pantalla
 121              		.loc 1 119 0
 122 0016 FFF7FEFF 		bl	UART_Start
 123              	.LVL10:
 120:main.c        ****     UART_PutString("Programa Iniciado Scanner\r\n");
 124              		.loc 1 120 0
 125 001a 0C48     		ldr	r0, .L9+4
 126 001c FFF7FEFF 		bl	UART_PutString
 127              	.LVL11:
 128              	.L8:
 121:main.c        ****     
 122:main.c        ****     for(;;)
 123:main.c        ****     {
 124:main.c        ****         CyBle_ProcessEvents();// Se procesan los eventos
 129              		.loc 1 124 0
 130 0020 FFF7FEFF 		bl	CyBle_ProcessEvents
 131              	.LVL12:
 125:main.c        ****         // Si se pulsa el botón de usuario se muestra a través de la UART el valor del contador y
 126:main.c        ****         if(BUTTON_Read()==0){
 132              		.loc 1 126 0
 133 0024 FFF7FEFF 		bl	BUTTON_Read
 134              	.LVL13:
 135 0028 0028     		cmp	r0, #0
 136 002a F9D1     		bne	.L8
 127:main.c        ****             //Lineas necesarias para mostrar el valor del contador
 128:main.c        ****             snprintf(PrintBuffer, 255,"%u", contador);
 137              		.loc 1 128 0
 138 002c 084B     		ldr	r3, .L9+8
 139 002e 1B88     		ldrh	r3, [r3]
 140 0030 084A     		ldr	r2, .L9+12
 141 0032 FF21     		movs	r1, #255
 142 0034 6846     		mov	r0, sp
 143 0036 FFF7FEFF 		bl	snprintf
 144              	.LVL14:
 129:main.c        ****             UART_PutString(PrintBuffer);
 145              		.loc 1 129 0
 146 003a 6846     		mov	r0, sp
 147 003c FFF7FEFF 		bl	UART_PutString
 148              	.LVL15:
 130:main.c        ****             
 131:main.c        ****             //Terminar el programa
 132:main.c        ****             return(0);
 133:main.c        ****         
 134:main.c        ****         }    
 135:main.c        ****     }
 136:main.c        **** /*FINAL*/
 137:main.c        ****     
ARM GAS  C:\Users\jupac\AppData\Local\Temp\ccAAy4F9.s 			page 6


 138:main.c        **** 
 139:main.c        **** }
 149              		.loc 1 139 0
 150 0040 0020     		movs	r0, #0
 151 0042 41B0     		add	sp, sp, #260
 152              		@ sp needed
 153 0044 00BD     		pop	{pc}
 154              	.L10:
 155 0046 C046     		.align	2
 156              	.L9:
 157 0048 00000000 		.word	AppCallBack
 158 004c 00000000 		.word	.LC3
 159 0050 00000000 		.word	.LANCHOR1
 160 0054 1C000000 		.word	.LC6
 161              		.cfi_endproc
 162              	.LFE37:
 163              		.size	main, .-main
 164              		.global	HEADER_AND_UUID_BEACONZ
 165              		.global	HEADER_AND_UUID_BEACONY
 166              		.global	HEADER_AND_UUID_BEACONX
 167              		.global	BEACON_LENGHT
 168              		.global	databeacon
 169              		.global	contador
 170              		.section	.rodata
 171              		.align	2
 172              		.set	.LANCHOR0,. + 0
 173              		.type	HEADER_AND_UUID_BEACONX, %object
 174              		.size	HEADER_AND_UUID_BEACONX, 25
 175              	HEADER_AND_UUID_BEACONX:
 176 0000 02       		.byte	2
 177 0001 01       		.byte	1
 178 0002 04       		.byte	4
 179 0003 1A       		.byte	26
 180 0004 FF       		.byte	-1
 181 0005 4C       		.byte	76
 182 0006 00       		.byte	0
 183 0007 02       		.byte	2
 184 0008 15       		.byte	21
 185 0009 01       		.byte	1
 186 000a 02       		.byte	2
 187 000b 03       		.byte	3
 188 000c 04       		.byte	4
 189 000d 05       		.byte	5
 190 000e 06       		.byte	6
 191 000f 07       		.byte	7
 192 0010 08       		.byte	8
 193 0011 09       		.byte	9
 194 0012 0A       		.byte	10
 195 0013 0B       		.byte	11
 196 0014 0C       		.byte	12
 197 0015 0D       		.byte	13
 198 0016 0E       		.byte	14
 199 0017 0F       		.byte	15
 200 0018 10       		.byte	16
 201 0019 000000   		.space	3
 202              		.type	HEADER_AND_UUID_BEACONZ, %object
 203              		.size	HEADER_AND_UUID_BEACONZ, 25
ARM GAS  C:\Users\jupac\AppData\Local\Temp\ccAAy4F9.s 			page 7


 204              	HEADER_AND_UUID_BEACONZ:
 205 001c 02       		.byte	2
 206 001d 01       		.byte	1
 207 001e 04       		.byte	4
 208 001f 1A       		.byte	26
 209 0020 FF       		.byte	-1
 210 0021 4C       		.byte	76
 211 0022 00       		.byte	0
 212 0023 02       		.byte	2
 213 0024 15       		.byte	21
 214 0025 30       		.byte	48
 215 0026 02       		.byte	2
 216 0027 03       		.byte	3
 217 0028 04       		.byte	4
 218 0029 05       		.byte	5
 219 002a 06       		.byte	6
 220 002b 07       		.byte	7
 221 002c 08       		.byte	8
 222 002d 09       		.byte	9
 223 002e 30       		.byte	48
 224 002f 0B       		.byte	11
 225 0030 0C       		.byte	12
 226 0031 0D       		.byte	13
 227 0032 0E       		.byte	14
 228 0033 0F       		.byte	15
 229 0034 30       		.byte	48
 230 0035 000000   		.space	3
 231              		.type	HEADER_AND_UUID_BEACONY, %object
 232              		.size	HEADER_AND_UUID_BEACONY, 25
 233              	HEADER_AND_UUID_BEACONY:
 234 0038 02       		.byte	2
 235 0039 01       		.byte	1
 236 003a 04       		.byte	4
 237 003b 1A       		.byte	26
 238 003c FF       		.byte	-1
 239 003d 4C       		.byte	76
 240 003e 00       		.byte	0
 241 003f 02       		.byte	2
 242 0040 15       		.byte	21
 243 0041 20       		.byte	32
 244 0042 02       		.byte	2
 245 0043 03       		.byte	3
 246 0044 04       		.byte	4
 247 0045 05       		.byte	5
 248 0046 06       		.byte	6
 249 0047 07       		.byte	7
 250 0048 08       		.byte	8
 251 0049 09       		.byte	9
 252 004a 20       		.byte	32
 253 004b 0B       		.byte	11
 254 004c 0C       		.byte	12
 255 004d 0D       		.byte	13
 256 004e 0E       		.byte	14
 257 004f 0F       		.byte	15
 258 0050 20       		.byte	32
 259              		.type	BEACON_LENGHT, %object
 260              		.size	BEACON_LENGHT, 1
ARM GAS  C:\Users\jupac\AppData\Local\Temp\ccAAy4F9.s 			page 8


 261              	BEACON_LENGHT:
 262 0051 1E       		.byte	30
 263              		.section	.rodata.str1.4,"aMS",%progbits,1
 264              		.align	2
 265              	.LC3:
 266 0000 50726F67 		.ascii	"Programa Iniciado Scanner\015\012\000"
 266      72616D61 
 266      20496E69 
 266      63696164 
 266      6F205363 
 267              	.LC6:
 268 001c 257500   		.ascii	"%u\000"
 269              		.bss
 270              		.align	2
 271              		.set	.LANCHOR1,. + 0
 272              		.type	contador, %object
 273              		.size	contador, 2
 274              	contador:
 275 0000 0000     		.space	2
 276 0002 0000     		.space	2
 277              		.type	databeacon, %object
 278              		.size	databeacon, 255
 279              	databeacon:
 280 0004 00000000 		.space	255
 280      00000000 
 280      00000000 
 280      00000000 
 280      00000000 
 281              		.text
 282              	.Letext0:
 283              		.file 2 "c:\\program files (x86)\\cypress\\psoc creator\\4.4\\psoc creator\\import\\gnu\\arm\\5.4.
 284              		.file 3 "c:\\program files (x86)\\cypress\\psoc creator\\4.4\\psoc creator\\import\\gnu\\arm\\5.4.
 285              		.file 4 "Generated_Source\\PSoC4/cytypes.h"
 286              		.file 5 "Generated_Source\\PSoC4/BLE_Stack.h"
 287              		.file 6 "Generated_Source\\PSoC4/BLE_StackGap.h"
 288              		.file 7 "Generated_Source\\PSoC4/BLE.h"
 289              		.file 8 "c:\\program files (x86)\\cypress\\psoc creator\\4.4\\psoc creator\\import\\gnu\\arm\\5.4.
 290              		.file 9 "Generated_Source\\PSoC4/UART.h"
 291              		.file 10 "Generated_Source\\PSoC4/BUTTON.h"
 292              		.file 11 "c:\\program files (x86)\\cypress\\psoc creator\\4.4\\psoc creator\\import\\gnu\\arm\\5.4