ARM GAS  C:\Users\jupac\AppData\Local\Temp\ccfYsui9.s 			page 1


   1              		.syntax unified
   2              		.cpu cortex-m0
   3              		.fpu softvfp
   4              		.eabi_attribute 20, 1
   5              		.eabi_attribute 21, 1
   6              		.eabi_attribute 23, 3
   7              		.eabi_attribute 24, 1
   8              		.eabi_attribute 25, 1
   9              		.eabi_attribute 26, 1
  10              		.eabi_attribute 30, 1
  11              		.eabi_attribute 34, 0
  12              		.eabi_attribute 18, 4
  13              		.thumb
  14              		.syntax unified
  15              		.file	"main.c"
  16              		.text
  17              	.Ltext0:
  18              		.cfi_sections	.debug_frame
  19              		.section	.text.AppCallBack,"ax",%progbits
  20              		.align	2
  21              		.global	AppCallBack
  22              		.code	16
  23              		.thumb_func
  24              		.type	AppCallBack, %function
  25              	AppCallBack:
  26              	.LFB36:
  27              		.file 1 "main.c"
   1:main.c        **** /* ========================================
   2:main.c        ****  *
   3:main.c        ****  * Copyright YOUR COMPANY, THE YEAR
   4:main.c        ****  * All Rights Reserved
   5:main.c        ****  * UNPUBLISHED, LICENSED SOFTWARE.
   6:main.c        ****  *a+
   7:main.c        ****  * CONFIDENTIAL AND PROPRIETARY INFORMATION
   8:main.c        ****  * WHICH IS THE PROPERTY OF your company.
   9:main.c        ****  *
  10:main.c        ****  * ========================================
  11:main.c        **** */
  12:main.c        **** #include "project.h"
  13:main.c        **** #include <stdio.h>
  14:main.c        **** #include <stdlib.h>
  15:main.c        **** 
  16:main.c        **** uint16_t contador=0; //Contador para controlar las tramas recibidas
  17:main.c        **** char databeacon[255]={0}; //Variable que se utiliza para copiar la trama recibida y poder mostrarla
  18:main.c        **** 
  19:main.c        **** //const uint8_t UUID_BEACON[16] = {0x01, 0x02, 0x03, 0x04, 0x05, 0x06, 0x07, 0x08, 0x09, 0x0A, 0x0B
  20:main.c        **** //const uint8_t HEADER_BEACON[9] = {0x02, 0x01, 0x04, 0x1A, 0xFF, 0x4C, 0x00, 0x02, 0x15};
  21:main.c        **** const uint8_t BEACON_LENGHT=30;//25+5 por información de Apple inc
  22:main.c        **** const uint8_t HEADER_AND_UUID_BEACONX[25]={0x02, 0x01, 0x04, 0x1A, 0xFF, 0x4C, 0x00, 0x02, 0x15, 0x
  23:main.c        **** const uint8_t HEADER_AND_UUID_BEACONY[25]={0x02, 0x01, 0x04, 0x1A, 0xFF, 0x4C, 0x00, 0x02, 0x15, 0x
  24:main.c        **** const uint8_t HEADER_AND_UUID_BEACONZ[25]={0x02, 0x01, 0x04, 0x1A, 0xFF, 0x4C, 0x00, 0x02, 0x15, 0x
  25:main.c        **** /**
  26:main.c        ****  * @brief                   BLE module application callback.
  27:main.c        ****  * @param[in] event         Type of BLE event as defined in the BLE Stack.
  28:main.c        ****  * @param[in] eventParam    Parameters associated with the specific BLE event.
  29:main.c        ****  */
  30:main.c        **** void AppCallBack(uint32 event, void *eventParam)
ARM GAS  C:\Users\jupac\AppData\Local\Temp\ccfYsui9.s 			page 2


  31:main.c        **** {
  28              		.loc 1 31 0
  29              		.cfi_startproc
  30              		@ args = 0, pretend = 0, frame = 0
  31              		@ frame_needed = 0, uses_anonymous_args = 0
  32              	.LVL0:
  33 0000 10B5     		push	{r4, lr}
  34              		.cfi_def_cfa_offset 8
  35              		.cfi_offset 4, -8
  36              		.cfi_offset 14, -4
  32:main.c        ****     (void) eventParam;
  33:main.c        **** 
  34:main.c        ****     switch (event)
  37              		.loc 1 34 0
  38 0002 0128     		cmp	r0, #1
  39 0004 02D0     		beq	.L3
  40 0006 2028     		cmp	r0, #32
  41 0008 04D0     		beq	.L4
  42 000a 22E0     		b	.L1
  43              	.L3:
  44              	.LBB2:
  35:main.c        ****     {
  36:main.c        ****     //int contador=0;  
  37:main.c        ****     //char str[10]={0};
  38:main.c        ****     //char str2[2]={0};
  39:main.c        ****     CYBLE_GAPC_ADV_REPORT_T *advReport = NULL;
  40:main.c        ****         //Puntero del tipo CYBLE_GAPC_ADV_REPORT_T llamado advReport iniciado a NULL
  41:main.c        ****         
  42:main.c        ****     case CYBLE_EVT_STACK_ON:
  43:main.c        ****         CyBle_GapcStartScan(CYBLE_SCANNING_FAST);
  45              		.loc 1 43 0
  46 000c 0020     		movs	r0, #0
  47              	.LVL1:
  48 000e FFF7FEFF 		bl	CyBle_GapcStartScan
  49              	.LVL2:
  44:main.c        ****         break;
  50              		.loc 1 44 0
  51 0012 1EE0     		b	.L1
  52              	.LVL3:
  53              	.L4:
  45:main.c        ****         
  46:main.c        ****     case CYBLE_EVT_GAPC_SCAN_PROGRESS_RESULT:
  47:main.c        ****         //Cuanto más tiempo se pierda peor, por ello intentamos detectar que no es un ibeacon prim
  48:main.c        ****         
  49:main.c        ****         
  50:main.c        ****         /*Cada vez que se escanea un dispositivo salta este evento, donde se puede operar con los r
  51:main.c        ****         advReport = (CYBLE_GAPC_ADV_REPORT_T*)eventParam;
  52:main.c        ****         
  53:main.c        **** //        SECCIÓN 1: DEBE COMENTARSE PARA VER TODAS LAS TRAMAS QUE LLEGAN
  54:main.c        ****         
  55:main.c        ****          /*Comprobamos si la trama NO es de nuestra red comparando la longitud de trama recibida*/
  56:main.c        ****         if(advReport->dataLen!=BEACON_LENGHT){
  54              		.loc 1 56 0
  55 0014 0B7A     		ldrb	r3, [r1, #8]
  56 0016 1E2B     		cmp	r3, #30
  57 0018 1BD1     		bne	.L1
  57:main.c        ****             break;
ARM GAS  C:\Users\jupac\AppData\Local\Temp\ccfYsui9.s 			page 3


  58:main.c        ****         }
  59:main.c        ****         
  60:main.c        ****         /*Comprobamos si la trama NO es de nuestra red comparando la trama recibida*/
  61:main.c        ****         if ((memcmp (&HEADER_AND_UUID_BEACONX[0], &advReport->data[0], 25)!=0)&&(memcmp (&HEADER_AN
  58              		.loc 1 61 0
  59 001a CC68     		ldr	r4, [r1, #12]
  60 001c 1922     		movs	r2, #25
  61 001e 2100     		movs	r1, r4
  62              	.LVL4:
  63 0020 0C48     		ldr	r0, .L6
  64              	.LVL5:
  65 0022 FFF7FEFF 		bl	memcmp
  66              	.LVL6:
  67 0026 0028     		cmp	r0, #0
  68 0028 0FD0     		beq	.L5
  69              		.loc 1 61 0 is_stmt 0 discriminator 1
  70 002a 1922     		movs	r2, #25
  71 002c 2100     		movs	r1, r4
  72 002e 0948     		ldr	r0, .L6
  73 0030 1C30     		adds	r0, r0, #28
  74 0032 FFF7FEFF 		bl	memcmp
  75              	.LVL7:
  76 0036 0028     		cmp	r0, #0
  77 0038 07D0     		beq	.L5
  78              		.loc 1 61 0 discriminator 2
  79 003a 1922     		movs	r2, #25
  80 003c 2100     		movs	r1, r4
  81 003e 0548     		ldr	r0, .L6
  82 0040 3830     		adds	r0, r0, #56
  83 0042 FFF7FEFF 		bl	memcmp
  84              	.LVL8:
  85 0046 0028     		cmp	r0, #0
  86 0048 03D1     		bne	.L1
  87              	.L5:
  62:main.c        ****             break;            
  63:main.c        ****         }
  64:main.c        ****         
  65:main.c        ****         
  66:main.c        ****         // FIN SECCIÓN 1
  67:main.c        ****         
  68:main.c        ****         
  69:main.c        ****         contador++;
  88              		.loc 1 69 0 is_stmt 1
  89 004a 034A     		ldr	r2, .L6+4
  90 004c 1388     		ldrh	r3, [r2]
  91 004e 0133     		adds	r3, r3, #1
  92 0050 1380     		strh	r3, [r2]
  93              	.LVL9:
  94              	.L1:
  95              	.LBE2:
  70:main.c        ****         
  71:main.c        ****         //SECCIÓN 2: LAS LÍNEAS SIGUIENTES DEBEN DEJAR DE SER CONSIDERADAS COMO COMENTARIO
  72:main.c        ****         //SI SE QUIERE VER POR PANTALLA EL CONTENIDO DE LAS TRAMAS
  73:main.c        ****         
  74:main.c        **** //        
  75:main.c        **** //        memcmp(databeacon, advReport->data, advReport->dataLen);
  76:main.c        **** //        for (uint32 i=0; i<advReport->dataLen; i++){
ARM GAS  C:\Users\jupac\AppData\Local\Temp\ccfYsui9.s 			page 4


  77:main.c        **** //            
  78:main.c        **** //            snprintf(databeacon, 255, "%02x", advReport->data[i]);
  79:main.c        **** //            UART_PutString(databeacon);
  80:main.c        **** //            UART_PutString(",");
  81:main.c        **** //            memset(databeacon, 0, 255);
  82:main.c        **** //            //snprintf(&databeacon[i], 255,"%x", advReport->data[i] );
  83:main.c        **** //            
  84:main.c        **** //            //copiamos en data beacon lo que llega en el advReport
  85:main.c        **** //            
  86:main.c        **** //        }
  87:main.c        **** //        UART_PutString("\r\n,");
  88:main.c        **** //        CyDelay(500);
  89:main.c        ****         
  90:main.c        ****         
  91:main.c        ****         // FIN SECCIÓN 2
  92:main.c        ****            
  93:main.c        ****         
  94:main.c        ****         break;
  95:main.c        ****         
  96:main.c        ****     case CYBLE_EVT_GAPC_SCAN_START_STOP :
  97:main.c        ****         break; 
  98:main.c        ****         
  99:main.c        ****     default:
 100:main.c        ****         break;
 101:main.c        ****     }
 102:main.c        **** }
  96              		.loc 1 102 0
  97              		@ sp needed
  98 0052 10BD     		pop	{r4, pc}
  99              	.L7:
 100              		.align	2
 101              	.L6:
 102 0054 00000000 		.word	.LANCHOR0
 103 0058 00000000 		.word	.LANCHOR1
 104              		.cfi_endproc
 105              	.LFE36:
 106              		.size	AppCallBack, .-AppCallBack
 107              		.section	.text.main,"ax",%progbits
 108              		.align	2
 109              		.global	main
 110              		.code	16
 111              		.thumb_func
 112              		.type	main, %function
 113              	main:
 114              	.LFB37:
 103:main.c        **** 
 104:main.c        **** 
 105:main.c        **** int main(void)
 106:main.c        **** {
 115              		.loc 1 106 0
 116              		.cfi_startproc
 117              		@ args = 0, pretend = 0, frame = 256
 118              		@ frame_needed = 0, uses_anonymous_args = 0
 119 0000 00B5     		push	{lr}
 120              		.cfi_def_cfa_offset 4
 121              		.cfi_offset 14, -4
 122 0002 C1B0     		sub	sp, sp, #260
ARM GAS  C:\Users\jupac\AppData\Local\Temp\ccfYsui9.s 			page 5


 123              		.cfi_def_cfa_offset 264
 107:main.c        ****     char PrintBuffer[255]={0}; //Variable que utilizamos para que la UART pueda mostrar el valor de
 124              		.loc 1 107 0
 125 0004 FF22     		movs	r2, #255
 126 0006 0021     		movs	r1, #0
 127 0008 6846     		mov	r0, sp
 128 000a FFF7FEFF 		bl	memset
 129              	.LVL10:
 108:main.c        ****     CyGlobalIntEnable; /* Enable global interrupts. */
 130              		.loc 1 108 0
 131              		.syntax divided
 132              	@ 108 "main.c" 1
 133 000e 62B6     		CPSIE   i
 134              	@ 0 "" 2
 109:main.c        ****     
 110:main.c        ****     CyBle_Start(AppCallBack);
 135              		.loc 1 110 0
 136              		.thumb
 137              		.syntax unified
 138 0010 0D48     		ldr	r0, .L10
 139 0012 FFF7FEFF 		bl	CyBle_Start
 140              	.LVL11:
 111:main.c        ****     UART_Start();
 141              		.loc 1 111 0
 142 0016 FFF7FEFF 		bl	UART_Start
 143              	.LVL12:
 112:main.c        ****     UART_PutString("Programa Iniciado\r\n");
 144              		.loc 1 112 0
 145 001a 0C48     		ldr	r0, .L10+4
 146 001c FFF7FEFF 		bl	UART_PutString
 147              	.LVL13:
 148              	.L9:
 113:main.c        ****     
 114:main.c        ****     for(;;)
 115:main.c        ****     {
 116:main.c        ****         CyBle_ProcessEvents();// Se procesan los eventos
 149              		.loc 1 116 0
 150 0020 FFF7FEFF 		bl	CyBle_ProcessEvents
 151              	.LVL14:
 117:main.c        ****         // Si se pulsa el botón de usuario se imprime por pantalla el valor del contador y termina
 118:main.c        ****         if(BUTTON_Read()==0){
 152              		.loc 1 118 0
 153 0024 FFF7FEFF 		bl	BUTTON_Read
 154              	.LVL15:
 155 0028 0028     		cmp	r0, #0
 156 002a F9D1     		bne	.L9
 119:main.c        ****             
 120:main.c        ****             snprintf(PrintBuffer, 255,"%u", contador);
 157              		.loc 1 120 0
 158 002c 084B     		ldr	r3, .L10+8
 159 002e 1B88     		ldrh	r3, [r3]
 160 0030 084A     		ldr	r2, .L10+12
 161 0032 FF21     		movs	r1, #255
 162 0034 6846     		mov	r0, sp
 163 0036 FFF7FEFF 		bl	snprintf
 164              	.LVL16:
 121:main.c        ****             UART_PutString(PrintBuffer);
ARM GAS  C:\Users\jupac\AppData\Local\Temp\ccfYsui9.s 			page 6


 165              		.loc 1 121 0
 166 003a 6846     		mov	r0, sp
 167 003c FFF7FEFF 		bl	UART_PutString
 168              	.LVL17:
 122:main.c        ****             
 123:main.c        ****             return(0);
 124:main.c        ****         
 125:main.c        ****         }    
 126:main.c        ****     }
 127:main.c        **** /*FINAL*/
 128:main.c        ****     
 129:main.c        **** 
 130:main.c        **** }
 169              		.loc 1 130 0
 170 0040 0020     		movs	r0, #0
 171 0042 41B0     		add	sp, sp, #260
 172              		@ sp needed
 173 0044 00BD     		pop	{pc}
 174              	.L11:
 175 0046 C046     		.align	2
 176              	.L10:
 177 0048 00000000 		.word	AppCallBack
 178 004c 00000000 		.word	.LC3
 179 0050 00000000 		.word	.LANCHOR1
 180 0054 14000000 		.word	.LC6
 181              		.cfi_endproc
 182              	.LFE37:
 183              		.size	main, .-main
 184              		.global	HEADER_AND_UUID_BEACONZ
 185              		.global	HEADER_AND_UUID_BEACONY
 186              		.global	HEADER_AND_UUID_BEACONX
 187              		.global	BEACON_LENGHT
 188              		.global	databeacon
 189              		.global	contador
 190              		.section	.rodata
 191              		.align	2
 192              		.set	.LANCHOR0,. + 0
 193              		.type	HEADER_AND_UUID_BEACONX, %object
 194              		.size	HEADER_AND_UUID_BEACONX, 25
 195              	HEADER_AND_UUID_BEACONX:
 196 0000 02       		.byte	2
 197 0001 01       		.byte	1
 198 0002 04       		.byte	4
 199 0003 1A       		.byte	26
 200 0004 FF       		.byte	-1
 201 0005 4C       		.byte	76
 202 0006 00       		.byte	0
 203 0007 02       		.byte	2
 204 0008 15       		.byte	21
 205 0009 01       		.byte	1
 206 000a 02       		.byte	2
 207 000b 03       		.byte	3
 208 000c 04       		.byte	4
 209 000d 05       		.byte	5
 210 000e 06       		.byte	6
 211 000f 07       		.byte	7
 212 0010 08       		.byte	8
ARM GAS  C:\Users\jupac\AppData\Local\Temp\ccfYsui9.s 			page 7


 213 0011 09       		.byte	9
 214 0012 0A       		.byte	10
 215 0013 0B       		.byte	11
 216 0014 0C       		.byte	12
 217 0015 0D       		.byte	13
 218 0016 0E       		.byte	14
 219 0017 0F       		.byte	15
 220 0018 10       		.byte	16
 221 0019 000000   		.space	3
 222              		.type	HEADER_AND_UUID_BEACONY, %object
 223              		.size	HEADER_AND_UUID_BEACONY, 25
 224              	HEADER_AND_UUID_BEACONY:
 225 001c 02       		.byte	2
 226 001d 01       		.byte	1
 227 001e 04       		.byte	4
 228 001f 1A       		.byte	26
 229 0020 FF       		.byte	-1
 230 0021 4C       		.byte	76
 231 0022 00       		.byte	0
 232 0023 02       		.byte	2
 233 0024 15       		.byte	21
 234 0025 20       		.byte	32
 235 0026 02       		.byte	2
 236 0027 03       		.byte	3
 237 0028 04       		.byte	4
 238 0029 05       		.byte	5
 239 002a 06       		.byte	6
 240 002b 07       		.byte	7
 241 002c 08       		.byte	8
 242 002d 09       		.byte	9
 243 002e 20       		.byte	32
 244 002f 0B       		.byte	11
 245 0030 0C       		.byte	12
 246 0031 0D       		.byte	13
 247 0032 0E       		.byte	14
 248 0033 0F       		.byte	15
 249 0034 20       		.byte	32
 250 0035 000000   		.space	3
 251              		.type	HEADER_AND_UUID_BEACONZ, %object
 252              		.size	HEADER_AND_UUID_BEACONZ, 25
 253              	HEADER_AND_UUID_BEACONZ:
 254 0038 02       		.byte	2
 255 0039 01       		.byte	1
 256 003a 04       		.byte	4
 257 003b 1A       		.byte	26
 258 003c FF       		.byte	-1
 259 003d 4C       		.byte	76
 260 003e 00       		.byte	0
 261 003f 02       		.byte	2
 262 0040 15       		.byte	21
 263 0041 30       		.byte	48
 264 0042 02       		.byte	2
 265 0043 03       		.byte	3
 266 0044 04       		.byte	4
 267 0045 05       		.byte	5
 268 0046 06       		.byte	6
 269 0047 07       		.byte	7
ARM GAS  C:\Users\jupac\AppData\Local\Temp\ccfYsui9.s 			page 8


 270 0048 08       		.byte	8
 271 0049 09       		.byte	9
 272 004a 30       		.byte	48
 273 004b 0B       		.byte	11
 274 004c 0C       		.byte	12
 275 004d 0D       		.byte	13
 276 004e 0E       		.byte	14
 277 004f 0F       		.byte	15
 278 0050 30       		.byte	48
 279              		.type	BEACON_LENGHT, %object
 280              		.size	BEACON_LENGHT, 1
 281              	BEACON_LENGHT:
 282 0051 1E       		.byte	30
 283              		.section	.rodata.str1.4,"aMS",%progbits,1
 284              		.align	2
 285              	.LC3:
 286 0000 50726F67 		.ascii	"Programa Iniciado\015\012\000"
 286      72616D61 
 286      20496E69 
 286      63696164 
 286      6F0D0A00 
 287              	.LC6:
 288 0014 257500   		.ascii	"%u\000"
 289              		.bss
 290              		.align	2
 291              		.set	.LANCHOR1,. + 0
 292              		.type	contador, %object
 293              		.size	contador, 2
 294              	contador:
 295 0000 0000     		.space	2
 296 0002 0000     		.space	2
 297              		.type	databeacon, %object
 298              		.size	databeacon, 255
 299              	databeacon:
 300 0004 00000000 		.space	255
 300      00000000 
 300      00000000 
 300      00000000 
 300      00000000 
 301              		.text
 302              	.Letext0:
 303              		.file 2 "c:\\program files (x86)\\cypress\\psoc creator\\4.4\\psoc creator\\import\\gnu\\arm\\5.4.
 304              		.file 3 "c:\\program files (x86)\\cypress\\psoc creator\\4.4\\psoc creator\\import\\gnu\\arm\\5.4.
 305              		.file 4 "Generated_Source\\PSoC4/cytypes.h"
 306              		.file 5 "Generated_Source\\PSoC4/BLE_Stack.h"
 307              		.file 6 "Generated_Source\\PSoC4/BLE_StackGap.h"
 308              		.file 7 "Generated_Source\\PSoC4/BLE.h"
 309              		.file 8 "c:\\program files (x86)\\cypress\\psoc creator\\4.4\\psoc creator\\import\\gnu\\arm\\5.4.
 310              		.file 9 "Generated_Source\\PSoC4/UART.h"
 311              		.file 10 "Generated_Source\\PSoC4/BUTTON.h"
 312              		.file 11 "c:\\program files (x86)\\cypress\\psoc creator\\4.4\\psoc creator\\import\\gnu\\arm\\5.4